	.cpu cortex-m4
	.arch armv7e-m
	.fpu fpv4-sp-d16
	.eabi_attribute 27, 1
	.eabi_attribute 28, 1
	.eabi_attribute 20, 1
	.eabi_attribute 21, 1
	.eabi_attribute 23, 3
	.eabi_attribute 24, 1
	.eabi_attribute 25, 1
	.eabi_attribute 26, 1
	.eabi_attribute 30, 6
	.eabi_attribute 34, 1
	.eabi_attribute 38, 1
	.eabi_attribute 18, 4
	.file	"communication_python.c"
	.text
.Ltext0:
	.section	.text.nrf_delay_us,"ax",%progbits
	.align	1
	.syntax unified
	.thumb
	.thumb_func
	.type	nrf_delay_us, %function
nrf_delay_us:
.LFB124:
	.file 1 "../../../nRF5_SDK_14.2.0/components/drivers_nrf/delay/nrf_delay.h"
	.loc 1 168 1
	@ args = 0, pretend = 0, frame = 16
	@ frame_needed = 0, uses_anonymous_args = 0
	@ link register save eliminated.
	sub	sp, sp, #16
.LCFI0:
	str	r0, [sp, #4]
	.loc 1 169 20
	ldr	r3, .L4
	str	r3, [sp, #12]
	.loc 1 170 8
	ldr	r3, [sp, #4]
	cmp	r3, #0
	beq	.L3
	.loc 1 172 1
	ldr	r3, .L4+4
	ldr	r2, [r3]
	ldr	r1, [sp, #12]
	ldr	r3, [sp, #4]
	.syntax unified
@ 172 "../../../nRF5_SDK_14.2.0/components/drivers_nrf/delay/nrf_delay.h" 1
	1:
 NOP
 NOP
 NOP
 NOP
 NOP
 NOP
 NOP
 NOP
 CMP r2, r1
 BEQ.N 2f
 NOP
 NOP
 NOP
 NOP
 NOP
 NOP
 NOP
 NOP
 NOP
 NOP
 NOP
 NOP
 NOP
 NOP
 NOP
 NOP
 NOP
 NOP
 NOP
 NOP
 NOP
 NOP
 NOP
 NOP
 NOP
 NOP
 NOP
 NOP
 NOP
 NOP
 NOP
 NOP
 NOP
 NOP
 NOP
 NOP
 NOP
 NOP
 NOP
 NOP
 NOP
 NOP
 NOP
 NOP
 NOP
 NOP
 NOP
 NOP
2:
 SUBS r3, r3, #1
 BNE.N 1b

@ 0 "" 2
	.thumb
	.syntax unified
	str	r3, [sp, #4]
.L3:
	.loc 1 256 1
	nop
	add	sp, sp, #16
.LCFI1:
	@ sp needed
	bx	lr
.L5:
	.align	2
.L4:
	.word	16000000
	.word	SystemCoreClock
.LFE124:
	.size	nrf_delay_us, .-nrf_delay_us
	.section	.text.nrf_delay_ms,"ax",%progbits
	.align	1
	.syntax unified
	.thumb
	.thumb_func
	.type	nrf_delay_ms, %function
nrf_delay_ms:
.LFB125:
	.loc 1 260 1
	@ args = 0, pretend = 0, frame = 8
	@ frame_needed = 0, uses_anonymous_args = 0
	push	{lr}
.LCFI2:
	sub	sp, sp, #12
.LCFI3:
	str	r0, [sp, #4]
	.loc 1 261 5
	ldr	r3, [sp, #4]
	mov	r2, #1000
	mul	r3, r2, r3
	mov	r0, r3
	bl	nrf_delay_us
	.loc 1 262 1
	nop
	add	sp, sp, #12
.LCFI4:
	@ sp needed
	ldr	pc, [sp], #4
.LFE125:
	.size	nrf_delay_ms, .-nrf_delay_ms
	.section	.data.config,"aw"
	.align	2
	.type	config, %object
	.size	config, 12
config:
	.byte	5
	.byte	2
	.byte	36
	.byte	1
	.byte	10
	.byte	10
	.byte	0
	.byte	2
	.byte	0
	.space	1
	.short	249
	.section	.text.sd_mutex_new,"ax",%progbits
	.align	1
	.syntax unified
	.thumb
	.thumb_func
	.type	sd_mutex_new, %function
sd_mutex_new:
.LFB126:
	.file 2 "../../../nRF5_SDK_14.2.0/components/softdevice/s132/headers/nrf_soc.h"
	.loc 2 391 1
	@ Naked Function: prologue and epilogue provided by programmer.
	@ args = 0, pretend = 0, frame = 0
	@ frame_needed = 0, uses_anonymous_args = 0
	.loc 2 391 1
	.syntax unified
@ 391 "../../../nRF5_SDK_14.2.0/components/softdevice/s132/headers/nrf_soc.h" 1
	svc #43
bx r14
@ 0 "" 2
	.thumb
	.syntax unified
	nop
	mov	r0, r3
.LFE126:
	.size	sd_mutex_new, .-sd_mutex_new
	.section	.text.sd_mutex_acquire,"ax",%progbits
	.align	1
	.syntax unified
	.thumb
	.thumb_func
	.type	sd_mutex_acquire, %function
sd_mutex_acquire:
.LFB127:
	.loc 2 400 1
	@ Naked Function: prologue and epilogue provided by programmer.
	@ args = 0, pretend = 0, frame = 0
	@ frame_needed = 0, uses_anonymous_args = 0
	.loc 2 400 1
	.syntax unified
@ 400 "../../../nRF5_SDK_14.2.0/components/softdevice/s132/headers/nrf_soc.h" 1
	svc #44
bx r14
@ 0 "" 2
	.thumb
	.syntax unified
	nop
	mov	r0, r3
.LFE127:
	.size	sd_mutex_acquire, .-sd_mutex_acquire
	.section	.text.sd_mutex_release,"ax",%progbits
	.align	1
	.syntax unified
	.thumb
	.thumb_func
	.type	sd_mutex_release, %function
sd_mutex_release:
.LFB128:
	.loc 2 408 1
	@ Naked Function: prologue and epilogue provided by programmer.
	@ args = 0, pretend = 0, frame = 0
	@ frame_needed = 0, uses_anonymous_args = 0
	.loc 2 408 1
	.syntax unified
@ 408 "../../../nRF5_SDK_14.2.0/components/softdevice/s132/headers/nrf_soc.h" 1
	svc #45
bx r14
@ 0 "" 2
	.thumb
	.syntax unified
	nop
	mov	r0, r3
.LFE128:
	.size	sd_mutex_release, .-sd_mutex_release
	.section	.text.sd_rand_application_pool_capacity_get,"ax",%progbits
	.align	1
	.syntax unified
	.thumb
	.thumb_func
	.type	sd_rand_application_pool_capacity_get, %function
sd_rand_application_pool_capacity_get:
.LFB129:
	.loc 2 416 1
	@ Naked Function: prologue and epilogue provided by programmer.
	@ args = 0, pretend = 0, frame = 0
	@ frame_needed = 0, uses_anonymous_args = 0
	.loc 2 416 1
	.syntax unified
@ 416 "../../../nRF5_SDK_14.2.0/components/softdevice/s132/headers/nrf_soc.h" 1
	svc #46
bx r14
@ 0 "" 2
	.thumb
	.syntax unified
	nop
	mov	r0, r3
.LFE129:
	.size	sd_rand_application_pool_capacity_get, .-sd_rand_application_pool_capacity_get
	.section	.text.sd_rand_application_bytes_available_get,"ax",%progbits
	.align	1
	.syntax unified
	.thumb
	.thumb_func
	.type	sd_rand_application_bytes_available_get, %function
sd_rand_application_bytes_available_get:
.LFB130:
	.loc 2 424 1
	@ Naked Function: prologue and epilogue provided by programmer.
	@ args = 0, pretend = 0, frame = 0
	@ frame_needed = 0, uses_anonymous_args = 0
	.loc 2 424 1
	.syntax unified
@ 424 "../../../nRF5_SDK_14.2.0/components/softdevice/s132/headers/nrf_soc.h" 1
	svc #47
bx r14
@ 0 "" 2
	.thumb
	.syntax unified
	nop
	mov	r0, r3
.LFE130:
	.size	sd_rand_application_bytes_available_get, .-sd_rand_application_bytes_available_get
	.section	.text.sd_rand_application_vector_get,"ax",%progbits
	.align	1
	.syntax unified
	.thumb
	.thumb_func
	.type	sd_rand_application_vector_get, %function
sd_rand_application_vector_get:
.LFB131:
	.loc 2 434 1
	@ Naked Function: prologue and epilogue provided by programmer.
	@ args = 0, pretend = 0, frame = 0
	@ frame_needed = 0, uses_anonymous_args = 0
	.loc 2 434 1
	.syntax unified
@ 434 "../../../nRF5_SDK_14.2.0/components/softdevice/s132/headers/nrf_soc.h" 1
	svc #48
bx r14
@ 0 "" 2
	.thumb
	.syntax unified
	nop
	mov	r0, r3
.LFE131:
	.size	sd_rand_application_vector_get, .-sd_rand_application_vector_get
	.section	.text.sd_power_reset_reason_get,"ax",%progbits
	.align	1
	.syntax unified
	.thumb
	.thumb_func
	.type	sd_power_reset_reason_get, %function
sd_power_reset_reason_get:
.LFB132:
	.loc 2 442 1
	@ Naked Function: prologue and epilogue provided by programmer.
	@ args = 0, pretend = 0, frame = 0
	@ frame_needed = 0, uses_anonymous_args = 0
	.loc 2 442 1
	.syntax unified
@ 442 "../../../nRF5_SDK_14.2.0/components/softdevice/s132/headers/nrf_soc.h" 1
	svc #51
bx r14
@ 0 "" 2
	.thumb
	.syntax unified
	nop
	mov	r0, r3
.LFE132:
	.size	sd_power_reset_reason_get, .-sd_power_reset_reason_get
	.section	.text.sd_power_reset_reason_clr,"ax",%progbits
	.align	1
	.syntax unified
	.thumb
	.thumb_func
	.type	sd_power_reset_reason_clr, %function
sd_power_reset_reason_clr:
.LFB133:
	.loc 2 450 1
	@ Naked Function: prologue and epilogue provided by programmer.
	@ args = 0, pretend = 0, frame = 0
	@ frame_needed = 0, uses_anonymous_args = 0
	.loc 2 450 1
	.syntax unified
@ 450 "../../../nRF5_SDK_14.2.0/components/softdevice/s132/headers/nrf_soc.h" 1
	svc #52
bx r14
@ 0 "" 2
	.thumb
	.syntax unified
	nop
	mov	r0, r3
.LFE133:
	.size	sd_power_reset_reason_clr, .-sd_power_reset_reason_clr
	.section	.text.sd_power_mode_set,"ax",%progbits
	.align	1
	.syntax unified
	.thumb
	.thumb_func
	.type	sd_power_mode_set, %function
sd_power_mode_set:
.LFB134:
	.loc 2 459 1
	@ Naked Function: prologue and epilogue provided by programmer.
	@ args = 0, pretend = 0, frame = 0
	@ frame_needed = 0, uses_anonymous_args = 0
	.loc 2 459 1
	.syntax unified
@ 459 "../../../nRF5_SDK_14.2.0/components/softdevice/s132/headers/nrf_soc.h" 1
	svc #49
bx r14
@ 0 "" 2
	.thumb
	.syntax unified
	nop
	mov	r0, r3
.LFE134:
	.size	sd_power_mode_set, .-sd_power_mode_set
	.section	.text.sd_power_system_off,"ax",%progbits
	.align	1
	.syntax unified
	.thumb
	.thumb_func
	.type	sd_power_system_off, %function
sd_power_system_off:
.LFB135:
	.loc 2 465 1
	@ Naked Function: prologue and epilogue provided by programmer.
	@ args = 0, pretend = 0, frame = 0
	@ frame_needed = 0, uses_anonymous_args = 0
	.loc 2 465 1
	.syntax unified
@ 465 "../../../nRF5_SDK_14.2.0/components/softdevice/s132/headers/nrf_soc.h" 1
	svc #50
bx r14
@ 0 "" 2
	.thumb
	.syntax unified
	nop
	mov	r0, r3
.LFE135:
	.size	sd_power_system_off, .-sd_power_system_off
	.section	.text.sd_power_pof_enable,"ax",%progbits
	.align	1
	.syntax unified
	.thumb
	.thumb_func
	.type	sd_power_pof_enable, %function
sd_power_pof_enable:
.LFB136:
	.loc 2 476 1
	@ Naked Function: prologue and epilogue provided by programmer.
	@ args = 0, pretend = 0, frame = 0
	@ frame_needed = 0, uses_anonymous_args = 0
	.loc 2 476 1
	.syntax unified
@ 476 "../../../nRF5_SDK_14.2.0/components/softdevice/s132/headers/nrf_soc.h" 1
	svc #53
bx r14
@ 0 "" 2
	.thumb
	.syntax unified
	nop
	mov	r0, r3
.LFE136:
	.size	sd_power_pof_enable, .-sd_power_pof_enable
	.section	.text.sd_power_pof_threshold_set,"ax",%progbits
	.align	1
	.syntax unified
	.thumb
	.thumb_func
	.type	sd_power_pof_threshold_set, %function
sd_power_pof_threshold_set:
.LFB137:
	.loc 2 485 1
	@ Naked Function: prologue and epilogue provided by programmer.
	@ args = 0, pretend = 0, frame = 0
	@ frame_needed = 0, uses_anonymous_args = 0
	.loc 2 485 1
	.syntax unified
@ 485 "../../../nRF5_SDK_14.2.0/components/softdevice/s132/headers/nrf_soc.h" 1
	svc #54
bx r14
@ 0 "" 2
	.thumb
	.syntax unified
	nop
	mov	r0, r3
.LFE137:
	.size	sd_power_pof_threshold_set, .-sd_power_pof_threshold_set
	.section	.text.sd_power_ram_power_set,"ax",%progbits
	.align	1
	.syntax unified
	.thumb
	.thumb_func
	.type	sd_power_ram_power_set, %function
sd_power_ram_power_set:
.LFB138:
	.loc 2 494 1
	@ Naked Function: prologue and epilogue provided by programmer.
	@ args = 0, pretend = 0, frame = 0
	@ frame_needed = 0, uses_anonymous_args = 0
	.loc 2 494 1
	.syntax unified
@ 494 "../../../nRF5_SDK_14.2.0/components/softdevice/s132/headers/nrf_soc.h" 1
	svc #55
bx r14
@ 0 "" 2
	.thumb
	.syntax unified
	nop
	mov	r0, r3
.LFE138:
	.size	sd_power_ram_power_set, .-sd_power_ram_power_set
	.section	.text.sd_power_ram_power_clr,"ax",%progbits
	.align	1
	.syntax unified
	.thumb
	.thumb_func
	.type	sd_power_ram_power_clr, %function
sd_power_ram_power_clr:
.LFB139:
	.loc 2 503 1
	@ Naked Function: prologue and epilogue provided by programmer.
	@ args = 0, pretend = 0, frame = 0
	@ frame_needed = 0, uses_anonymous_args = 0
	.loc 2 503 1
	.syntax unified
@ 503 "../../../nRF5_SDK_14.2.0/components/softdevice/s132/headers/nrf_soc.h" 1
	svc #56
bx r14
@ 0 "" 2
	.thumb
	.syntax unified
	nop
	mov	r0, r3
.LFE139:
	.size	sd_power_ram_power_clr, .-sd_power_ram_power_clr
	.section	.text.sd_power_ram_power_get,"ax",%progbits
	.align	1
	.syntax unified
	.thumb
	.thumb_func
	.type	sd_power_ram_power_get, %function
sd_power_ram_power_get:
.LFB140:
	.loc 2 512 1
	@ Naked Function: prologue and epilogue provided by programmer.
	@ args = 0, pretend = 0, frame = 0
	@ frame_needed = 0, uses_anonymous_args = 0
	.loc 2 512 1
	.syntax unified
@ 512 "../../../nRF5_SDK_14.2.0/components/softdevice/s132/headers/nrf_soc.h" 1
	svc #57
bx r14
@ 0 "" 2
	.thumb
	.syntax unified
	nop
	mov	r0, r3
.LFE140:
	.size	sd_power_ram_power_get, .-sd_power_ram_power_get
	.section	.text.sd_power_gpregret_set,"ax",%progbits
	.align	1
	.syntax unified
	.thumb
	.thumb_func
	.type	sd_power_gpregret_set, %function
sd_power_gpregret_set:
.LFB141:
	.loc 2 521 1
	@ Naked Function: prologue and epilogue provided by programmer.
	@ args = 0, pretend = 0, frame = 0
	@ frame_needed = 0, uses_anonymous_args = 0
	.loc 2 521 1
	.syntax unified
@ 521 "../../../nRF5_SDK_14.2.0/components/softdevice/s132/headers/nrf_soc.h" 1
	svc #58
bx r14
@ 0 "" 2
	.thumb
	.syntax unified
	nop
	mov	r0, r3
.LFE141:
	.size	sd_power_gpregret_set, .-sd_power_gpregret_set
	.section	.text.sd_power_gpregret_clr,"ax",%progbits
	.align	1
	.syntax unified
	.thumb
	.thumb_func
	.type	sd_power_gpregret_clr, %function
sd_power_gpregret_clr:
.LFB142:
	.loc 2 530 1
	@ Naked Function: prologue and epilogue provided by programmer.
	@ args = 0, pretend = 0, frame = 0
	@ frame_needed = 0, uses_anonymous_args = 0
	.loc 2 530 1
	.syntax unified
@ 530 "../../../nRF5_SDK_14.2.0/components/softdevice/s132/headers/nrf_soc.h" 1
	svc #59
bx r14
@ 0 "" 2
	.thumb
	.syntax unified
	nop
	mov	r0, r3
.LFE142:
	.size	sd_power_gpregret_clr, .-sd_power_gpregret_clr
	.section	.text.sd_power_gpregret_get,"ax",%progbits
	.align	1
	.syntax unified
	.thumb
	.thumb_func
	.type	sd_power_gpregret_get, %function
sd_power_gpregret_get:
.LFB143:
	.loc 2 539 1
	@ Naked Function: prologue and epilogue provided by programmer.
	@ args = 0, pretend = 0, frame = 0
	@ frame_needed = 0, uses_anonymous_args = 0
	.loc 2 539 1
	.syntax unified
@ 539 "../../../nRF5_SDK_14.2.0/components/softdevice/s132/headers/nrf_soc.h" 1
	svc #60
bx r14
@ 0 "" 2
	.thumb
	.syntax unified
	nop
	mov	r0, r3
.LFE143:
	.size	sd_power_gpregret_get, .-sd_power_gpregret_get
	.section	.text.sd_power_dcdc_mode_set,"ax",%progbits
	.align	1
	.syntax unified
	.thumb
	.thumb_func
	.type	sd_power_dcdc_mode_set, %function
sd_power_dcdc_mode_set:
.LFB144:
	.loc 2 550 1
	@ Naked Function: prologue and epilogue provided by programmer.
	@ args = 0, pretend = 0, frame = 0
	@ frame_needed = 0, uses_anonymous_args = 0
	.loc 2 550 1
	.syntax unified
@ 550 "../../../nRF5_SDK_14.2.0/components/softdevice/s132/headers/nrf_soc.h" 1
	svc #61
bx r14
@ 0 "" 2
	.thumb
	.syntax unified
	nop
	mov	r0, r3
.LFE144:
	.size	sd_power_dcdc_mode_set, .-sd_power_dcdc_mode_set
	.section	.text.sd_clock_hfclk_request,"ax",%progbits
	.align	1
	.syntax unified
	.thumb
	.thumb_func
	.type	sd_clock_hfclk_request, %function
sd_clock_hfclk_request:
.LFB145:
	.loc 2 562 1
	@ Naked Function: prologue and epilogue provided by programmer.
	@ args = 0, pretend = 0, frame = 0
	@ frame_needed = 0, uses_anonymous_args = 0
	.loc 2 562 1
	.syntax unified
@ 562 "../../../nRF5_SDK_14.2.0/components/softdevice/s132/headers/nrf_soc.h" 1
	svc #63
bx r14
@ 0 "" 2
	.thumb
	.syntax unified
	nop
	mov	r0, r3
.LFE145:
	.size	sd_clock_hfclk_request, .-sd_clock_hfclk_request
	.section	.text.sd_clock_hfclk_release,"ax",%progbits
	.align	1
	.syntax unified
	.thumb
	.thumb_func
	.type	sd_clock_hfclk_release, %function
sd_clock_hfclk_release:
.LFB146:
	.loc 2 573 1
	@ Naked Function: prologue and epilogue provided by programmer.
	@ args = 0, pretend = 0, frame = 0
	@ frame_needed = 0, uses_anonymous_args = 0
	.loc 2 573 1
	.syntax unified
@ 573 "../../../nRF5_SDK_14.2.0/components/softdevice/s132/headers/nrf_soc.h" 1
	svc #64
bx r14
@ 0 "" 2
	.thumb
	.syntax unified
	nop
	mov	r0, r3
.LFE146:
	.size	sd_clock_hfclk_release, .-sd_clock_hfclk_release
	.section	.text.sd_clock_hfclk_is_running,"ax",%progbits
	.align	1
	.syntax unified
	.thumb
	.thumb_func
	.type	sd_clock_hfclk_is_running, %function
sd_clock_hfclk_is_running:
.LFB147:
	.loc 2 584 1
	@ Naked Function: prologue and epilogue provided by programmer.
	@ args = 0, pretend = 0, frame = 0
	@ frame_needed = 0, uses_anonymous_args = 0
	.loc 2 584 1
	.syntax unified
@ 584 "../../../nRF5_SDK_14.2.0/components/softdevice/s132/headers/nrf_soc.h" 1
	svc #65
bx r14
@ 0 "" 2
	.thumb
	.syntax unified
	nop
	mov	r0, r3
.LFE147:
	.size	sd_clock_hfclk_is_running, .-sd_clock_hfclk_is_running
	.section	.text.sd_app_evt_wait,"ax",%progbits
	.align	1
	.syntax unified
	.thumb
	.thumb_func
	.type	sd_app_evt_wait, %function
sd_app_evt_wait:
.LFB148:
	.loc 2 612 1
	@ Naked Function: prologue and epilogue provided by programmer.
	@ args = 0, pretend = 0, frame = 0
	@ frame_needed = 0, uses_anonymous_args = 0
	.loc 2 612 1
	.syntax unified
@ 612 "../../../nRF5_SDK_14.2.0/components/softdevice/s132/headers/nrf_soc.h" 1
	svc #62
bx r14
@ 0 "" 2
	.thumb
	.syntax unified
	nop
	mov	r0, r3
.LFE148:
	.size	sd_app_evt_wait, .-sd_app_evt_wait
	.section	.text.sd_ppi_channel_enable_get,"ax",%progbits
	.align	1
	.syntax unified
	.thumb
	.thumb_func
	.type	sd_ppi_channel_enable_get, %function
sd_ppi_channel_enable_get:
.LFB149:
	.loc 2 620 1
	@ Naked Function: prologue and epilogue provided by programmer.
	@ args = 0, pretend = 0, frame = 0
	@ frame_needed = 0, uses_anonymous_args = 0
	.loc 2 620 1
	.syntax unified
@ 620 "../../../nRF5_SDK_14.2.0/components/softdevice/s132/headers/nrf_soc.h" 1
	svc #32
bx r14
@ 0 "" 2
	.thumb
	.syntax unified
	nop
	mov	r0, r3
.LFE149:
	.size	sd_ppi_channel_enable_get, .-sd_ppi_channel_enable_get
	.section	.text.sd_ppi_channel_enable_set,"ax",%progbits
	.align	1
	.syntax unified
	.thumb
	.thumb_func
	.type	sd_ppi_channel_enable_set, %function
sd_ppi_channel_enable_set:
.LFB150:
	.loc 2 628 1
	@ Naked Function: prologue and epilogue provided by programmer.
	@ args = 0, pretend = 0, frame = 0
	@ frame_needed = 0, uses_anonymous_args = 0
	.loc 2 628 1
	.syntax unified
@ 628 "../../../nRF5_SDK_14.2.0/components/softdevice/s132/headers/nrf_soc.h" 1
	svc #33
bx r14
@ 0 "" 2
	.thumb
	.syntax unified
	nop
	mov	r0, r3
.LFE150:
	.size	sd_ppi_channel_enable_set, .-sd_ppi_channel_enable_set
	.section	.text.sd_ppi_channel_enable_clr,"ax",%progbits
	.align	1
	.syntax unified
	.thumb
	.thumb_func
	.type	sd_ppi_channel_enable_clr, %function
sd_ppi_channel_enable_clr:
.LFB151:
	.loc 2 636 1
	@ Naked Function: prologue and epilogue provided by programmer.
	@ args = 0, pretend = 0, frame = 0
	@ frame_needed = 0, uses_anonymous_args = 0
	.loc 2 636 1
	.syntax unified
@ 636 "../../../nRF5_SDK_14.2.0/components/softdevice/s132/headers/nrf_soc.h" 1
	svc #34
bx r14
@ 0 "" 2
	.thumb
	.syntax unified
	nop
	mov	r0, r3
.LFE151:
	.size	sd_ppi_channel_enable_clr, .-sd_ppi_channel_enable_clr
	.section	.text.sd_ppi_channel_assign,"ax",%progbits
	.align	1
	.syntax unified
	.thumb
	.thumb_func
	.type	sd_ppi_channel_assign, %function
sd_ppi_channel_assign:
.LFB152:
	.loc 2 647 1
	@ Naked Function: prologue and epilogue provided by programmer.
	@ args = 0, pretend = 0, frame = 0
	@ frame_needed = 0, uses_anonymous_args = 0
	.loc 2 647 1
	.syntax unified
@ 647 "../../../nRF5_SDK_14.2.0/components/softdevice/s132/headers/nrf_soc.h" 1
	svc #35
bx r14
@ 0 "" 2
	.thumb
	.syntax unified
	nop
	mov	r0, r3
.LFE152:
	.size	sd_ppi_channel_assign, .-sd_ppi_channel_assign
	.section	.text.sd_ppi_group_task_enable,"ax",%progbits
	.align	1
	.syntax unified
	.thumb
	.thumb_func
	.type	sd_ppi_group_task_enable, %function
sd_ppi_group_task_enable:
.LFB153:
	.loc 2 656 1
	@ Naked Function: prologue and epilogue provided by programmer.
	@ args = 0, pretend = 0, frame = 0
	@ frame_needed = 0, uses_anonymous_args = 0
	.loc 2 656 1
	.syntax unified
@ 656 "../../../nRF5_SDK_14.2.0/components/softdevice/s132/headers/nrf_soc.h" 1
	svc #36
bx r14
@ 0 "" 2
	.thumb
	.syntax unified
	nop
	mov	r0, r3
.LFE153:
	.size	sd_ppi_group_task_enable, .-sd_ppi_group_task_enable
	.section	.text.sd_ppi_group_task_disable,"ax",%progbits
	.align	1
	.syntax unified
	.thumb
	.thumb_func
	.type	sd_ppi_group_task_disable, %function
sd_ppi_group_task_disable:
.LFB154:
	.loc 2 665 1
	@ Naked Function: prologue and epilogue provided by programmer.
	@ args = 0, pretend = 0, frame = 0
	@ frame_needed = 0, uses_anonymous_args = 0
	.loc 2 665 1
	.syntax unified
@ 665 "../../../nRF5_SDK_14.2.0/components/softdevice/s132/headers/nrf_soc.h" 1
	svc #37
bx r14
@ 0 "" 2
	.thumb
	.syntax unified
	nop
	mov	r0, r3
.LFE154:
	.size	sd_ppi_group_task_disable, .-sd_ppi_group_task_disable
	.section	.text.sd_ppi_group_assign,"ax",%progbits
	.align	1
	.syntax unified
	.thumb
	.thumb_func
	.type	sd_ppi_group_assign, %function
sd_ppi_group_assign:
.LFB155:
	.loc 2 675 1
	@ Naked Function: prologue and epilogue provided by programmer.
	@ args = 0, pretend = 0, frame = 0
	@ frame_needed = 0, uses_anonymous_args = 0
	.loc 2 675 1
	.syntax unified
@ 675 "../../../nRF5_SDK_14.2.0/components/softdevice/s132/headers/nrf_soc.h" 1
	svc #38
bx r14
@ 0 "" 2
	.thumb
	.syntax unified
	nop
	mov	r0, r3
.LFE155:
	.size	sd_ppi_group_assign, .-sd_ppi_group_assign
	.section	.text.sd_ppi_group_get,"ax",%progbits
	.align	1
	.syntax unified
	.thumb
	.thumb_func
	.type	sd_ppi_group_get, %function
sd_ppi_group_get:
.LFB156:
	.loc 2 685 1
	@ Naked Function: prologue and epilogue provided by programmer.
	@ args = 0, pretend = 0, frame = 0
	@ frame_needed = 0, uses_anonymous_args = 0
	.loc 2 685 1
	.syntax unified
@ 685 "../../../nRF5_SDK_14.2.0/components/softdevice/s132/headers/nrf_soc.h" 1
	svc #39
bx r14
@ 0 "" 2
	.thumb
	.syntax unified
	nop
	mov	r0, r3
.LFE156:
	.size	sd_ppi_group_get, .-sd_ppi_group_get
	.section	.text.sd_radio_notification_cfg_set,"ax",%progbits
	.align	1
	.syntax unified
	.thumb
	.thumb_func
	.type	sd_radio_notification_cfg_set, %function
sd_radio_notification_cfg_set:
.LFB157:
	.loc 2 716 1
	@ Naked Function: prologue and epilogue provided by programmer.
	@ args = 0, pretend = 0, frame = 0
	@ frame_needed = 0, uses_anonymous_args = 0
	.loc 2 716 1
	.syntax unified
@ 716 "../../../nRF5_SDK_14.2.0/components/softdevice/s132/headers/nrf_soc.h" 1
	svc #66
bx r14
@ 0 "" 2
	.thumb
	.syntax unified
	nop
	mov	r0, r3
.LFE157:
	.size	sd_radio_notification_cfg_set, .-sd_radio_notification_cfg_set
	.section	.text.sd_ecb_block_encrypt,"ax",%progbits
	.align	1
	.syntax unified
	.thumb
	.thumb_func
	.type	sd_ecb_block_encrypt, %function
sd_ecb_block_encrypt:
.LFB158:
	.loc 2 732 1
	@ Naked Function: prologue and epilogue provided by programmer.
	@ args = 0, pretend = 0, frame = 0
	@ frame_needed = 0, uses_anonymous_args = 0
	.loc 2 732 1
	.syntax unified
@ 732 "../../../nRF5_SDK_14.2.0/components/softdevice/s132/headers/nrf_soc.h" 1
	svc #67
bx r14
@ 0 "" 2
	.thumb
	.syntax unified
	nop
	mov	r0, r3
.LFE158:
	.size	sd_ecb_block_encrypt, .-sd_ecb_block_encrypt
	.section	.text.sd_ecb_blocks_encrypt,"ax",%progbits
	.align	1
	.syntax unified
	.thumb
	.thumb_func
	.type	sd_ecb_blocks_encrypt, %function
sd_ecb_blocks_encrypt:
.LFB159:
	.loc 2 749 1
	@ Naked Function: prologue and epilogue provided by programmer.
	@ args = 0, pretend = 0, frame = 0
	@ frame_needed = 0, uses_anonymous_args = 0
	.loc 2 749 1
	.syntax unified
@ 749 "../../../nRF5_SDK_14.2.0/components/softdevice/s132/headers/nrf_soc.h" 1
	svc #68
bx r14
@ 0 "" 2
	.thumb
	.syntax unified
	nop
	mov	r0, r3
.LFE159:
	.size	sd_ecb_blocks_encrypt, .-sd_ecb_blocks_encrypt
	.section	.text.sd_evt_get,"ax",%progbits
	.align	1
	.syntax unified
	.thumb
	.thumb_func
	.type	sd_evt_get, %function
sd_evt_get:
.LFB160:
	.loc 2 760 1
	@ Naked Function: prologue and epilogue provided by programmer.
	@ args = 0, pretend = 0, frame = 0
	@ frame_needed = 0, uses_anonymous_args = 0
	.loc 2 760 1
	.syntax unified
@ 760 "../../../nRF5_SDK_14.2.0/components/softdevice/s132/headers/nrf_soc.h" 1
	svc #72
bx r14
@ 0 "" 2
	.thumb
	.syntax unified
	nop
	mov	r0, r3
.LFE160:
	.size	sd_evt_get, .-sd_evt_get
	.section	.text.sd_temp_get,"ax",%progbits
	.align	1
	.syntax unified
	.thumb
	.thumb_func
	.type	sd_temp_get, %function
sd_temp_get:
.LFB161:
	.loc 2 771 1
	@ Naked Function: prologue and epilogue provided by programmer.
	@ args = 0, pretend = 0, frame = 0
	@ frame_needed = 0, uses_anonymous_args = 0
	.loc 2 771 1
	.syntax unified
@ 771 "../../../nRF5_SDK_14.2.0/components/softdevice/s132/headers/nrf_soc.h" 1
	svc #73
bx r14
@ 0 "" 2
	.thumb
	.syntax unified
	nop
	mov	r0, r3
.LFE161:
	.size	sd_temp_get, .-sd_temp_get
	.section	.text.sd_flash_write,"ax",%progbits
	.align	1
	.syntax unified
	.thumb
	.thumb_func
	.type	sd_flash_write, %function
sd_flash_write:
.LFB162:
	.loc 2 806 1
	@ Naked Function: prologue and epilogue provided by programmer.
	@ args = 0, pretend = 0, frame = 0
	@ frame_needed = 0, uses_anonymous_args = 0
	.loc 2 806 1
	.syntax unified
@ 806 "../../../nRF5_SDK_14.2.0/components/softdevice/s132/headers/nrf_soc.h" 1
	svc #41
bx r14
@ 0 "" 2
	.thumb
	.syntax unified
	nop
	mov	r0, r3
.LFE162:
	.size	sd_flash_write, .-sd_flash_write
	.section	.text.sd_flash_page_erase,"ax",%progbits
	.align	1
	.syntax unified
	.thumb
	.thumb_func
	.type	sd_flash_page_erase, %function
sd_flash_page_erase:
.LFB163:
	.loc 2 836 1
	@ Naked Function: prologue and epilogue provided by programmer.
	@ args = 0, pretend = 0, frame = 0
	@ frame_needed = 0, uses_anonymous_args = 0
	.loc 2 836 1
	.syntax unified
@ 836 "../../../nRF5_SDK_14.2.0/components/softdevice/s132/headers/nrf_soc.h" 1
	svc #40
bx r14
@ 0 "" 2
	.thumb
	.syntax unified
	nop
	mov	r0, r3
.LFE163:
	.size	sd_flash_page_erase, .-sd_flash_page_erase
	.section	.text.sd_flash_protect,"ax",%progbits
	.align	1
	.syntax unified
	.thumb
	.thumb_func
	.type	sd_flash_protect, %function
sd_flash_protect:
.LFB164:
	.loc 2 858 1
	@ Naked Function: prologue and epilogue provided by programmer.
	@ args = 0, pretend = 0, frame = 0
	@ frame_needed = 0, uses_anonymous_args = 0
	.loc 2 858 1
	.syntax unified
@ 858 "../../../nRF5_SDK_14.2.0/components/softdevice/s132/headers/nrf_soc.h" 1
	svc #42
bx r14
@ 0 "" 2
	.thumb
	.syntax unified
	nop
	mov	r0, r3
.LFE164:
	.size	sd_flash_protect, .-sd_flash_protect
	.section	.text.sd_radio_session_open,"ax",%progbits
	.align	1
	.syntax unified
	.thumb
	.thumb_func
	.type	sd_radio_session_open, %function
sd_radio_session_open:
.LFB165:
	.loc 2 880 2
	@ Naked Function: prologue and epilogue provided by programmer.
	@ args = 0, pretend = 0, frame = 0
	@ frame_needed = 0, uses_anonymous_args = 0
	.loc 2 880 2
	.syntax unified
@ 880 "../../../nRF5_SDK_14.2.0/components/softdevice/s132/headers/nrf_soc.h" 1
	svc #69
bx r14
@ 0 "" 2
	.thumb
	.syntax unified
	nop
	mov	r0, r3
.LFE165:
	.size	sd_radio_session_open, .-sd_radio_session_open
	.section	.text.sd_radio_session_close,"ax",%progbits
	.align	1
	.syntax unified
	.thumb
	.thumb_func
	.type	sd_radio_session_close, %function
sd_radio_session_close:
.LFB166:
	.loc 2 893 2
	@ Naked Function: prologue and epilogue provided by programmer.
	@ args = 0, pretend = 0, frame = 0
	@ frame_needed = 0, uses_anonymous_args = 0
	.loc 2 893 2
	.syntax unified
@ 893 "../../../nRF5_SDK_14.2.0/components/softdevice/s132/headers/nrf_soc.h" 1
	svc #70
bx r14
@ 0 "" 2
	.thumb
	.syntax unified
	nop
	mov	r0, r3
.LFE166:
	.size	sd_radio_session_close, .-sd_radio_session_close
	.section	.text.sd_radio_request,"ax",%progbits
	.align	1
	.syntax unified
	.thumb
	.thumb_func
	.type	sd_radio_request, %function
sd_radio_request:
.LFB167:
	.loc 2 925 2
	@ Naked Function: prologue and epilogue provided by programmer.
	@ args = 0, pretend = 0, frame = 0
	@ frame_needed = 0, uses_anonymous_args = 0
	.loc 2 925 2
	.syntax unified
@ 925 "../../../nRF5_SDK_14.2.0/components/softdevice/s132/headers/nrf_soc.h" 1
	svc #71
bx r14
@ 0 "" 2
	.thumb
	.syntax unified
	nop
	mov	r0, r3
.LFE167:
	.size	sd_radio_request, .-sd_radio_request
	.section	.bss.pycom_uart_msg,"aw",%nobits
	.type	pycom_uart_msg, %object
	.size	pycom_uart_msg, 1
pycom_uart_msg:
	.space	1
	.section	.bss.pycom_uart_cmd_id,"aw",%nobits
	.type	pycom_uart_cmd_id, %object
	.size	pycom_uart_cmd_id, 1
pycom_uart_cmd_id:
	.space	1
	.section	.bss.pycom_uart_pl_len,"aw",%nobits
	.type	pycom_uart_pl_len, %object
	.size	pycom_uart_pl_len, 1
pycom_uart_pl_len:
	.space	1
	.section	.bss.pycom_uart_pl_f,"aw",%nobits
	.align	2
	.type	pycom_uart_pl_f, %object
	.size	pycom_uart_pl_f, 24
pycom_uart_pl_f:
	.space	24
	.section	.bss.pycom_uart_pl_uint16,"aw",%nobits
	.align	2
	.type	pycom_uart_pl_uint16, %object
	.size	pycom_uart_pl_uint16, 6
pycom_uart_pl_uint16:
	.space	6
	.section	.bss.pycom_stream_buf_f,"aw",%nobits
	.align	2
	.type	pycom_stream_buf_f, %object
	.size	pycom_stream_buf_f, 24
pycom_stream_buf_f:
	.space	24
	.section	.bss.pycom_stream_window_ctr,"aw",%nobits
	.align	2
	.type	pycom_stream_window_ctr, %object
	.size	pycom_stream_window_ctr, 4
pycom_stream_window_ctr:
	.space	4
	.section	.bss.pycom_mag_si_buf,"aw",%nobits
	.align	2
	.type	pycom_mag_si_buf, %object
	.size	pycom_mag_si_buf, 36
pycom_mag_si_buf:
	.space	36
	.section	.bss.pycom_run_streaming_flag,"aw",%nobits
	.type	pycom_run_streaming_flag, %object
	.size	pycom_run_streaming_flag, 1
pycom_run_streaming_flag:
	.space	1
	.section	.bss.pycom_run_routine_flag,"aw",%nobits
	.type	pycom_run_routine_flag, %object
	.size	pycom_run_routine_flag, 1
pycom_run_routine_flag:
	.space	1
	.section	.bss.pycom_menu_flag,"aw",%nobits
	.type	pycom_menu_flag, %object
	.size	pycom_menu_flag, 1
pycom_menu_flag:
	.space	1
	.section	.bss.pycom_executing_cmd,"aw",%nobits
	.type	pycom_executing_cmd, %object
	.size	pycom_executing_cmd, 1
pycom_executing_cmd:
	.space	1
	.section	.text.pycom_check_error,"ax",%progbits
	.align	1
	.global	pycom_check_error
	.syntax unified
	.thumb
	.thumb_func
	.type	pycom_check_error, %function
pycom_check_error:
.LFB232:
	.file 3 "E:\\matte\\Documents\\uni\\master EIT\\1st year\\2nd semester\\UV\\UWBdrone_estimation\\UWBmodule\\segger projects\\rtdoa_acc_mag\\project\\tag\\SES\\PY_COM\\communication_python.c"
	.loc 3 42 36
	@ args = 0, pretend = 0, frame = 16
	@ frame_needed = 0, uses_anonymous_args = 0
	push	{lr}
.LCFI5:
	sub	sp, sp, #20
.LCFI6:
	mov	r3, r0
	strb	r3, [sp, #7]
	.loc 3 43 5
	ldrb	r3, [sp, #7]	@ zero_extendqisi2
	cmp	r3, #0
	beq	.L50
.LBB2:
	.loc 3 44 13
	ldr	r3, .L53
	ldrb	r3, [r3]	@ zero_extendqisi2
	strb	r3, [sp, #12]
	ldrb	r3, [sp, #7]
	strb	r3, [sp, #13]
	.loc 3 45 5
	add	r3, sp, #12
	mov	r2, r3
	movs	r1, #2
	movs	r0, #255
	bl	pycom_write_pck_uint8
.LBE2:
	.loc 3 48 1
	b	.L52
.L50:
	.loc 3 47 8
	ldr	r2, .L53
	movs	r1, #1
	movs	r0, #0
	bl	pycom_write_pck_uint8
.L52:
	.loc 3 48 1
	nop
	add	sp, sp, #20
.LCFI7:
	@ sp needed
	ldr	pc, [sp], #4
.L54:
	.align	2
.L53:
	.word	pycom_executing_cmd
.LFE232:
	.size	pycom_check_error, .-pycom_check_error
	.section	.text.pycom_get_acc_mag,"ax",%progbits
	.align	1
	.global	pycom_get_acc_mag
	.syntax unified
	.thumb
	.thumb_func
	.type	pycom_get_acc_mag, %function
pycom_get_acc_mag:
.LFB233:
	.loc 3 51 38
	@ args = 0, pretend = 0, frame = 16
	@ frame_needed = 0, uses_anonymous_args = 0
	push	{lr}
.LCFI8:
	sub	sp, sp, #20
.LCFI9:
	str	r0, [sp, #4]
	.loc 3 52 17
	ldr	r0, [sp, #4]
	bl	lis2dh_get_acc_calibrated
	str	r0, [sp, #12]
	.loc 3 53 5
	ldr	r3, [sp, #12]
	cmp	r3, #0
	bne	.L56
	.loc 3 53 18 discriminator 1
	ldr	r3, [sp, #4]
	adds	r3, r3, #12
	mov	r0, r3
	bl	lis2mdl_get_mag_calibrated
	str	r0, [sp, #12]
.L56:
	.loc 3 54 10
	ldr	r3, [sp, #12]
	.loc 3 55 1
	mov	r0, r3
	add	sp, sp, #20
.LCFI10:
	@ sp needed
	ldr	pc, [sp], #4
.LFE233:
	.size	pycom_get_acc_mag, .-pycom_get_acc_mag
	.section	.text.pycom_write_pck_f,"ax",%progbits
	.align	1
	.global	pycom_write_pck_f
	.syntax unified
	.thumb
	.thumb_func
	.type	pycom_write_pck_f, %function
pycom_write_pck_f:
.LFB234:
	.loc 3 60 64
	@ args = 0, pretend = 0, frame = 24
	@ frame_needed = 0, uses_anonymous_args = 0
	push	{lr}
.LCFI11:
	sub	sp, sp, #28
.LCFI12:
	mov	r3, r0
	str	r2, [sp]
	strb	r3, [sp, #7]
	mov	r3, r1
	strb	r3, [sp, #6]
	.loc 3 66 9
	movs	r0, #85
	bl	app_uart_put
	str	r0, [sp, #16]
	.loc 3 67 5
	ldr	r3, [sp, #16]
	cmp	r3, #0
	beq	.L59
	.loc 3 67 18 discriminator 1
	movs	r3, #9
	b	.L69
.L59:
	.loc 3 68 9
	ldrb	r3, [sp, #7]	@ zero_extendqisi2
	mov	r0, r3
	bl	app_uart_put
	str	r0, [sp, #16]
	.loc 3 69 5
	ldr	r3, [sp, #16]
	cmp	r3, #0
	beq	.L61
	.loc 3 69 18 discriminator 1
	movs	r3, #9
	b	.L69
.L61:
	.loc 3 70 9
	ldrb	r3, [sp, #6]	@ zero_extendqisi2
	mov	r0, r3
	bl	app_uart_put
	str	r0, [sp, #16]
	.loc 3 71 5
	ldr	r3, [sp, #16]
	cmp	r3, #0
	beq	.L62
	.loc 3 71 18 discriminator 1
	movs	r3, #9
	b	.L69
.L62:
.LBB3:
	.loc 3 74 15
	movs	r3, #0
	strb	r3, [sp, #23]
	.loc 3 74 3
	b	.L63
.L67:
	.loc 3 76 21
	ldrb	r3, [sp, #23]	@ zero_extendqisi2
	lsls	r3, r3, #2
	ldr	r2, [sp]
	add	r3, r3, r2
	ldr	r3, [r3]	@ float
	.loc 3 76 17
	str	r3, [sp, #12]	@ float
.LBB4:
	.loc 3 79 17
	movs	r3, #0
	strb	r3, [sp, #22]
	.loc 3 79 5
	b	.L64
.L66:
	.loc 3 81 13
	ldrb	r3, [sp, #22]	@ zero_extendqisi2
	adds	r3, r3, #24
	add	r3, sp, r3
	ldrb	r3, [r3, #-12]	@ zero_extendqisi2
	mov	r0, r3
	bl	app_uart_put
	str	r0, [sp, #16]
	.loc 3 85 9
	ldr	r3, [sp, #16]
	cmp	r3, #0
	beq	.L65
	.loc 3 85 22 discriminator 1
	movs	r3, #9
	b	.L69
.L65:
	.loc 3 79 40 discriminator 2
	ldrb	r3, [sp, #22]	@ zero_extendqisi2
	adds	r3, r3, #1
	strb	r3, [sp, #22]
.L64:
	.loc 3 79 5 discriminator 1
	ldrb	r3, [sp, #22]	@ zero_extendqisi2
	cmp	r3, #3
	bls	.L66
.LBE4:
	.loc 3 74 28 discriminator 2
	ldrb	r3, [sp, #23]	@ zero_extendqisi2
	adds	r3, r3, #1
	strb	r3, [sp, #23]
.L63:
	.loc 3 74 3 discriminator 1
	ldrb	r2, [sp, #23]	@ zero_extendqisi2
	ldrb	r3, [sp, #6]	@ zero_extendqisi2
	cmp	r2, r3
	bcc	.L67
.LBE3:
	.loc 3 89 9
	movs	r0, #85
	bl	app_uart_put
	str	r0, [sp, #16]
	.loc 3 90 5
	ldr	r3, [sp, #16]
	cmp	r3, #0
	beq	.L68
	.loc 3 90 18 discriminator 1
	movs	r3, #9
	b	.L69
.L68:
	.loc 3 94 10
	movs	r3, #0
.L69:
	.loc 3 95 1 discriminator 1
	mov	r0, r3
	add	sp, sp, #28
.LCFI13:
	@ sp needed
	ldr	pc, [sp], #4
.LFE234:
	.size	pycom_write_pck_f, .-pycom_write_pck_f
	.section	.text.pycom_write_pck_uint16,"ax",%progbits
	.align	1
	.global	pycom_write_pck_uint16
	.syntax unified
	.thumb
	.thumb_func
	.type	pycom_write_pck_uint16, %function
pycom_write_pck_uint16:
.LFB235:
	.loc 3 98 72
	@ args = 0, pretend = 0, frame = 24
	@ frame_needed = 0, uses_anonymous_args = 0
	push	{lr}
.LCFI14:
	sub	sp, sp, #28
.LCFI15:
	mov	r3, r0
	str	r2, [sp]
	strb	r3, [sp, #7]
	mov	r3, r1
	strb	r3, [sp, #6]
	.loc 3 104 9
	movs	r0, #85
	bl	app_uart_put
	str	r0, [sp, #16]
	.loc 3 105 5
	ldr	r3, [sp, #16]
	cmp	r3, #0
	beq	.L71
	.loc 3 105 18 discriminator 1
	movs	r3, #9
	b	.L81
.L71:
	.loc 3 106 9
	ldrb	r3, [sp, #7]	@ zero_extendqisi2
	mov	r0, r3
	bl	app_uart_put
	str	r0, [sp, #16]
	.loc 3 107 5
	ldr	r3, [sp, #16]
	cmp	r3, #0
	beq	.L73
	.loc 3 107 18 discriminator 1
	movs	r3, #9
	b	.L81
.L73:
	.loc 3 108 9
	ldrb	r3, [sp, #6]	@ zero_extendqisi2
	mov	r0, r3
	bl	app_uart_put
	str	r0, [sp, #16]
	.loc 3 109 5
	ldr	r3, [sp, #16]
	cmp	r3, #0
	beq	.L74
	.loc 3 109 18 discriminator 1
	movs	r3, #9
	b	.L81
.L74:
.LBB5:
	.loc 3 112 15
	movs	r3, #0
	strb	r3, [sp, #23]
	.loc 3 112 3
	b	.L75
.L79:
	.loc 3 114 23
	ldrb	r3, [sp, #23]	@ zero_extendqisi2
	lsls	r3, r3, #1
	ldr	r2, [sp]
	add	r3, r3, r2
	ldrh	r3, [r3]
	.loc 3 114 19
	strh	r3, [sp, #12]	@ movhi
.LBB6:
	.loc 3 117 17
	movs	r3, #0
	strb	r3, [sp, #22]
	.loc 3 117 5
	b	.L76
.L78:
	.loc 3 119 13
	ldrb	r3, [sp, #22]	@ zero_extendqisi2
	adds	r3, r3, #24
	add	r3, sp, r3
	ldrb	r3, [r3, #-12]	@ zero_extendqisi2
	mov	r0, r3
	bl	app_uart_put
	str	r0, [sp, #16]
	.loc 3 123 9
	ldr	r3, [sp, #16]
	cmp	r3, #0
	beq	.L77
	.loc 3 123 22 discriminator 1
	movs	r3, #9
	b	.L81
.L77:
	.loc 3 117 43 discriminator 2
	ldrb	r3, [sp, #22]	@ zero_extendqisi2
	adds	r3, r3, #1
	strb	r3, [sp, #22]
.L76:
	.loc 3 117 5 discriminator 1
	ldrb	r3, [sp, #22]	@ zero_extendqisi2
	cmp	r3, #1
	bls	.L78
.LBE6:
	.loc 3 112 28 discriminator 2
	ldrb	r3, [sp, #23]	@ zero_extendqisi2
	adds	r3, r3, #1
	strb	r3, [sp, #23]
.L75:
	.loc 3 112 3 discriminator 1
	ldrb	r2, [sp, #23]	@ zero_extendqisi2
	ldrb	r3, [sp, #6]	@ zero_extendqisi2
	cmp	r2, r3
	bcc	.L79
.LBE5:
	.loc 3 127 9
	movs	r0, #85
	bl	app_uart_put
	str	r0, [sp, #16]
	.loc 3 128 5
	ldr	r3, [sp, #16]
	cmp	r3, #0
	beq	.L80
	.loc 3 128 18 discriminator 1
	movs	r3, #9
	b	.L81
.L80:
	.loc 3 132 10
	movs	r3, #0
.L81:
	.loc 3 133 1 discriminator 1
	mov	r0, r3
	add	sp, sp, #28
.LCFI16:
	@ sp needed
	ldr	pc, [sp], #4
.LFE235:
	.size	pycom_write_pck_uint16, .-pycom_write_pck_uint16
	.section	.text.pycom_write_pck_uint8,"ax",%progbits
	.align	1
	.global	pycom_write_pck_uint8
	.syntax unified
	.thumb
	.thumb_func
	.type	pycom_write_pck_uint8, %function
pycom_write_pck_uint8:
.LFB236:
	.loc 3 136 70
	@ args = 0, pretend = 0, frame = 16
	@ frame_needed = 0, uses_anonymous_args = 0
	push	{lr}
.LCFI17:
	sub	sp, sp, #20
.LCFI18:
	mov	r3, r0
	str	r2, [sp]
	strb	r3, [sp, #7]
	mov	r3, r1
	strb	r3, [sp, #6]
	.loc 3 141 9
	movs	r0, #85
	bl	app_uart_put
	str	r0, [sp, #8]
	.loc 3 142 5
	ldr	r3, [sp, #8]
	cmp	r3, #0
	beq	.L83
	.loc 3 142 18 discriminator 1
	movs	r3, #9
	b	.L84
.L83:
	.loc 3 143 9
	ldrb	r3, [sp, #7]	@ zero_extendqisi2
	mov	r0, r3
	bl	app_uart_put
	str	r0, [sp, #8]
	.loc 3 144 5
	ldr	r3, [sp, #8]
	cmp	r3, #0
	beq	.L85
	.loc 3 144 18 discriminator 1
	movs	r3, #9
	b	.L84
.L85:
	.loc 3 145 9
	ldrb	r3, [sp, #6]	@ zero_extendqisi2
	mov	r0, r3
	bl	app_uart_put
	str	r0, [sp, #8]
	.loc 3 146 5
	ldr	r3, [sp, #8]
	cmp	r3, #0
	beq	.L86
	.loc 3 146 18 discriminator 1
	movs	r3, #9
	b	.L84
.L86:
.LBB7:
	.loc 3 149 15
	movs	r3, #0
	strb	r3, [sp, #15]
	.loc 3 149 3
	b	.L87
.L89:
	.loc 3 151 26
	ldrb	r3, [sp, #15]	@ zero_extendqisi2
	ldr	r2, [sp]
	add	r3, r3, r2
	.loc 3 151 11
	ldrb	r3, [r3]	@ zero_extendqisi2
	mov	r0, r3
	bl	app_uart_put
	str	r0, [sp, #8]
	.loc 3 152 7
	ldr	r3, [sp, #8]
	cmp	r3, #0
	beq	.L88
	.loc 3 152 20 discriminator 1
	movs	r3, #9
	b	.L84
.L88:
	.loc 3 149 28 discriminator 2
	ldrb	r3, [sp, #15]	@ zero_extendqisi2
	adds	r3, r3, #1
	strb	r3, [sp, #15]
.L87:
	.loc 3 149 3 discriminator 1
	ldrb	r2, [sp, #15]	@ zero_extendqisi2
	ldrb	r3, [sp, #6]	@ zero_extendqisi2
	cmp	r2, r3
	bcc	.L89
.LBE7:
	.loc 3 155 9
	movs	r0, #85
	bl	app_uart_put
	str	r0, [sp, #8]
	.loc 3 156 5
	ldr	r3, [sp, #8]
	cmp	r3, #0
	beq	.L90
	.loc 3 156 18 discriminator 1
	movs	r3, #9
	b	.L84
.L90:
	.loc 3 160 10
	movs	r3, #0
.L84:
	.loc 3 161 1
	mov	r0, r3
	add	sp, sp, #20
.LCFI19:
	@ sp needed
	ldr	pc, [sp], #4
.LFE236:
	.size	pycom_write_pck_uint8, .-pycom_write_pck_uint8
	.section	.text.pycom_write_pck_cmd,"ax",%progbits
	.align	1
	.global	pycom_write_pck_cmd
	.syntax unified
	.thumb
	.thumb_func
	.type	pycom_write_pck_cmd, %function
pycom_write_pck_cmd:
.LFB237:
	.loc 3 164 41
	@ args = 0, pretend = 0, frame = 8
	@ frame_needed = 0, uses_anonymous_args = 0
	push	{lr}
.LCFI20:
	sub	sp, sp, #12
.LCFI21:
	mov	r3, r0
	strb	r3, [sp, #7]
	.loc 3 165 10
	ldrb	r3, [sp, #7]	@ zero_extendqisi2
	movs	r2, #0
	movs	r1, #0
	mov	r0, r3
	bl	pycom_write_pck_uint8
	mov	r3, r0
	.loc 3 166 1
	mov	r0, r3
	add	sp, sp, #12
.LCFI22:
	@ sp needed
	ldr	pc, [sp], #4
.LFE237:
	.size	pycom_write_pck_cmd, .-pycom_write_pck_cmd
	.section	.text.pycom_stream_pck_f,"ax",%progbits
	.align	1
	.global	pycom_stream_pck_f
	.syntax unified
	.thumb
	.thumb_func
	.type	pycom_stream_pck_f, %function
pycom_stream_pck_f:
.LFB238:
	.loc 3 171 61
	@ args = 4, pretend = 0, frame = 24
	@ frame_needed = 0, uses_anonymous_args = 0
	push	{lr}
.LCFI23:
	sub	sp, sp, #28
.LCFI24:
	str	r2, [sp, #8]
	mov	r2, r3
	mov	r3, r0	@ movhi
	strh	r3, [sp, #14]	@ movhi
	mov	r3, r1
	strb	r3, [sp, #13]
	mov	r3, r2	@ movhi
	strh	r3, [sp, #6]	@ movhi
	.loc 3 172 12
	movs	r3, #0
	str	r3, [sp, #20]
	.loc 3 173 28
	ldr	r3, .L101
	movs	r2, #1
	strb	r2, [r3]
	.loc 3 175 27
	ldrh	r3, [sp, #14]
	ldr	r2, .L101+4
	str	r3, [r2]
	.loc 3 177 8
	b	.L94
.L100:
	.loc 3 180 11
	ldr	r3, [sp, #8]
	ldr	r0, .L101+8
	blx	r3
.LVL0:
	mov	r3, r0
	.loc 3 180 9
	str	r3, [sp, #20]
	.loc 3 181 7
	ldr	r3, [sp, #20]
	cmp	r3, #0
	beq	.L95
	.loc 3 182 31
	ldr	r3, .L101+4
	movs	r2, #0
	str	r2, [r3]
	.loc 3 183 32
	ldr	r3, .L101
	movs	r2, #0
	strb	r2, [r3]
	.loc 3 184 14
	ldr	r3, [sp, #20]
	b	.L96
.L95:
	.loc 3 188 11
	ldrb	r3, [sp, #13]	@ zero_extendqisi2
	ldr	r2, .L101+8
	mov	r1, r3
	movs	r0, #2
	bl	pycom_write_pck_f
	str	r0, [sp, #20]
	.loc 3 189 7
	ldr	r3, [sp, #20]
	cmp	r3, #0
	beq	.L97
	.loc 3 190 31
	ldr	r3, .L101+4
	movs	r2, #0
	str	r2, [r3]
	.loc 3 191 32
	ldr	r3, .L101
	movs	r2, #0
	strb	r2, [r3]
	.loc 3 192 14
	ldr	r3, [sp, #20]
	b	.L96
.L97:
	.loc 3 196 11
	ldrh	r3, [sp, #6]
	movs	r1, #0
	mov	r0, r3
	bl	pycom_wait_for_pck
	str	r0, [sp, #20]
	.loc 3 197 7
	ldr	r3, [sp, #20]
	cmp	r3, #12
	bne	.L98
	.loc 3 197 42 discriminator 1
	movs	r3, #0
	str	r3, [sp, #20]
.L98:
	.loc 3 200 7
	ldr	r3, [sp, #20]
	cmp	r3, #0
	beq	.L99
	.loc 3 201 31
	ldr	r3, .L101+4
	movs	r2, #0
	str	r2, [r3]
	.loc 3 202 32
	ldr	r3, .L101
	movs	r2, #0
	strb	r2, [r3]
	.loc 3 203 14
	ldr	r3, [sp, #20]
	b	.L96
.L99:
	.loc 3 207 5
	ldrh	r3, [sp, #32]
	mov	r0, r3
	bl	nrf_delay_ms
	.loc 3 209 29
	ldr	r3, .L101+4
	ldr	r3, [r3]
	subs	r3, r3, #1
	ldr	r2, .L101+4
	str	r3, [r2]
.L94:
	.loc 3 177 33
	ldr	r3, .L101+4
	ldr	r3, [r3]
	.loc 3 177 8
	cmp	r3, #0
	bne	.L100
	.loc 3 212 28
	ldr	r3, .L101
	movs	r2, #0
	strb	r2, [r3]
	.loc 3 213 10
	ldr	r3, [sp, #20]
.L96:
	.loc 3 215 1
	mov	r0, r3
	add	sp, sp, #28
.LCFI25:
	@ sp needed
	ldr	pc, [sp], #4
.L102:
	.align	2
.L101:
	.word	pycom_run_streaming_flag
	.word	pycom_stream_window_ctr
	.word	pycom_stream_buf_f
.LFE238:
	.size	pycom_stream_pck_f, .-pycom_stream_pck_f
	.section	.text.pycom_read_byte,"ax",%progbits
	.align	1
	.global	pycom_read_byte
	.syntax unified
	.thumb
	.thumb_func
	.type	pycom_read_byte, %function
pycom_read_byte:
.LFB239:
	.loc 3 222 43
	@ args = 0, pretend = 0, frame = 16
	@ frame_needed = 0, uses_anonymous_args = 0
	push	{lr}
.LCFI26:
	sub	sp, sp, #20
.LCFI27:
	mov	r3, r0
	strh	r3, [sp, #6]	@ movhi
	.loc 3 223 12
	movs	r3, #5
	str	r3, [sp, #12]
	.loc 3 224 12
	movs	r3, #0
	strh	r3, [sp, #10]	@ movhi
	.loc 3 226 8
	b	.L104
.L107:
	.loc 3 227 5
	movs	r0, #1
	bl	nrf_delay_ms
	.loc 3 230 7
	ldrh	r2, [sp, #10]
	ldrh	r3, [sp, #6]
	cmp	r2, r3
	bls	.L105
	.loc 3 230 25 discriminator 1
	movs	r3, #11
	str	r3, [sp, #12]
	b	.L106
.L105:
	.loc 3 231 16
	ldr	r0, .L109
	bl	app_uart_get
	str	r0, [sp, #12]
.L106:
	.loc 3 233 6
	ldrh	r3, [sp, #10]
	adds	r3, r3, #1
	strh	r3, [sp, #10]	@ movhi
.L104:
	.loc 3 226 8
	ldr	r3, [sp, #12]
	cmp	r3, #5
	beq	.L107
	.loc 3 236 10
	ldr	r3, [sp, #12]
	.loc 3 237 1
	mov	r0, r3
	add	sp, sp, #20
.LCFI28:
	@ sp needed
	ldr	pc, [sp], #4
.L110:
	.align	2
.L109:
	.word	pycom_uart_msg
.LFE239:
	.size	pycom_read_byte, .-pycom_read_byte
	.section	.text.pycom_read_payload_f,"ax",%progbits
	.align	1
	.global	pycom_read_payload_f
	.syntax unified
	.thumb
	.thumb_func
	.type	pycom_read_payload_f, %function
pycom_read_payload_f:
.LFB240:
	.loc 3 240 53
	@ args = 0, pretend = 0, frame = 24
	@ frame_needed = 0, uses_anonymous_args = 0
	push	{lr}
.LCFI29:
	sub	sp, sp, #28
.LCFI30:
	mov	r3, r0
	strh	r3, [sp, #6]	@ movhi
	.loc 3 241 12
	movs	r3, #0
	str	r3, [sp, #20]
.LBB8:
	.loc 3 244 15
	movs	r3, #0
	strb	r3, [sp, #19]
	.loc 3 244 3
	b	.L112
.L119:
.LBB9:
	.loc 3 247 17
	movs	r3, #0
	strb	r3, [sp, #18]
	.loc 3 247 5
	b	.L113
.L117:
	.loc 3 248 13
	ldrh	r3, [sp, #6]
	mov	r0, r3
	bl	pycom_read_byte
	str	r0, [sp, #20]
	.loc 3 249 9
	ldr	r3, [sp, #20]
	cmp	r3, #0
	beq	.L114
	.loc 3 249 22 discriminator 1
	ldr	r3, [sp, #20]
	b	.L120
.L114:
	.loc 3 251 20 discriminator 2
	ldrb	r3, [sp, #18]	@ zero_extendqisi2
	.loc 3 251 24 discriminator 2
	ldr	r2, .L121
	ldrb	r2, [r2]	@ zero_extendqisi2
	adds	r3, r3, #24
	add	r3, sp, r3
	strb	r2, [r3, #-12]
	.loc 3 247 48 discriminator 2
	ldrb	r3, [sp, #18]	@ zero_extendqisi2
	adds	r3, r3, #1
	strb	r3, [sp, #18]
.L113:
	.loc 3 247 5 discriminator 1
	ldrb	r3, [sp, #18]	@ zero_extendqisi2
	cmp	r3, #3
	bhi	.L116
	.loc 3 247 38 discriminator 3
	ldr	r3, [sp, #20]
	cmp	r3, #0
	beq	.L117
.L116:
.LBE9:
	.loc 3 258 20 discriminator 2
	ldrb	r3, [sp, #19]	@ zero_extendqisi2
	.loc 3 258 35 discriminator 2
	ldr	r2, [sp, #12]	@ float
	.loc 3 258 24 discriminator 2
	ldr	r1, .L121+4
	lsls	r3, r3, #2
	add	r3, r3, r1
	str	r2, [r3]	@ float
	.loc 3 244 50 discriminator 2
	ldrb	r3, [sp, #19]	@ zero_extendqisi2
	adds	r3, r3, #1
	strb	r3, [sp, #19]
.L112:
	.loc 3 244 21 discriminator 1
	ldr	r3, .L121+8
	ldrb	r3, [r3]	@ zero_extendqisi2
	.loc 3 244 3 discriminator 1
	ldrb	r2, [sp, #19]	@ zero_extendqisi2
	cmp	r2, r3
	bcs	.L118
	.loc 3 244 40 discriminator 3
	ldr	r3, [sp, #20]
	cmp	r3, #0
	beq	.L119
.L118:
.LBE8:
	.loc 3 262 10
	ldr	r3, [sp, #20]
.L120:
	.loc 3 263 1 discriminator 1
	mov	r0, r3
	add	sp, sp, #28
.LCFI31:
	@ sp needed
	ldr	pc, [sp], #4
.L122:
	.align	2
.L121:
	.word	pycom_uart_msg
	.word	pycom_uart_pl_f
	.word	pycom_uart_pl_len
.LFE240:
	.size	pycom_read_payload_f, .-pycom_read_payload_f
	.section	.text.pycom_read_payload_uint16,"ax",%progbits
	.align	1
	.global	pycom_read_payload_uint16
	.syntax unified
	.thumb
	.thumb_func
	.type	pycom_read_payload_uint16, %function
pycom_read_payload_uint16:
.LFB241:
	.loc 3 266 58
	@ args = 0, pretend = 0, frame = 16
	@ frame_needed = 0, uses_anonymous_args = 0
	push	{lr}
.LCFI32:
	sub	sp, sp, #20
.LCFI33:
	mov	r3, r0
	strh	r3, [sp, #6]	@ movhi
	.loc 3 267 12
	movs	r3, #0
	str	r3, [sp, #12]
.LBB10:
	.loc 3 270 15
	movs	r3, #0
	strb	r3, [sp, #11]
	.loc 3 270 3
	b	.L124
.L129:
	.loc 3 273 11
	ldrh	r3, [sp, #6]
	mov	r0, r3
	bl	pycom_read_byte
	str	r0, [sp, #12]
	.loc 3 274 7
	ldr	r3, [sp, #12]
	cmp	r3, #0
	beq	.L125
	.loc 3 274 20 discriminator 1
	ldr	r3, [sp, #12]
	b	.L126
.L125:
	.loc 3 275 13
	ldr	r3, .L130
	ldrb	r3, [r3]
	strb	r3, [sp, #10]
	.loc 3 277 11
	ldrh	r3, [sp, #6]
	mov	r0, r3
	bl	pycom_read_byte
	str	r0, [sp, #12]
	.loc 3 278 7
	ldr	r3, [sp, #12]
	cmp	r3, #0
	beq	.L127
	.loc 3 278 20 discriminator 1
	ldr	r3, [sp, #12]
	b	.L126
.L127:
	.loc 3 279 14 discriminator 2
	ldr	r3, .L130
	ldrb	r3, [r3]
	strb	r3, [sp, #9]
	.loc 3 283 31 discriminator 2
	ldrb	r3, [sp, #9]	@ zero_extendqisi2
	uxth	r3, r3
	lsls	r3, r3, #8
	uxth	r1, r3
	.loc 3 283 58 discriminator 2
	ldrb	r3, [sp, #10]	@ zero_extendqisi2
	uxth	r2, r3
	.loc 3 283 25 discriminator 2
	ldrb	r3, [sp, #11]	@ zero_extendqisi2
	.loc 3 283 58 discriminator 2
	add	r2, r2, r1
	uxth	r1, r2
	.loc 3 283 29 discriminator 2
	ldr	r2, .L130+4
	strh	r1, [r2, r3, lsl #1]	@ movhi
	.loc 3 270 50 discriminator 2
	ldrb	r3, [sp, #11]	@ zero_extendqisi2
	adds	r3, r3, #1
	strb	r3, [sp, #11]
.L124:
	.loc 3 270 21 discriminator 1
	ldr	r3, .L130+8
	ldrb	r3, [r3]	@ zero_extendqisi2
	.loc 3 270 3 discriminator 1
	ldrb	r2, [sp, #11]	@ zero_extendqisi2
	cmp	r2, r3
	bcs	.L128
	.loc 3 270 40 discriminator 3
	ldr	r3, [sp, #12]
	cmp	r3, #0
	beq	.L129
.L128:
.LBE10:
	.loc 3 290 10
	ldr	r3, [sp, #12]
.L126:
	.loc 3 291 1
	mov	r0, r3
	add	sp, sp, #20
.LCFI34:
	@ sp needed
	ldr	pc, [sp], #4
.L131:
	.align	2
.L130:
	.word	pycom_uart_msg
	.word	pycom_uart_pl_uint16
	.word	pycom_uart_pl_len
.LFE241:
	.size	pycom_read_payload_uint16, .-pycom_read_payload_uint16
	.section	.text.pycom_read_pck,"ax",%progbits
	.align	1
	.global	pycom_read_pck
	.syntax unified
	.thumb
	.thumb_func
	.type	pycom_read_pck, %function
pycom_read_pck:
.LFB242:
	.loc 3 294 47
	@ args = 0, pretend = 0, frame = 16
	@ frame_needed = 0, uses_anonymous_args = 0
	push	{lr}
.LCFI35:
	sub	sp, sp, #20
.LCFI36:
	mov	r3, r0
	strh	r3, [sp, #6]	@ movhi
	.loc 3 300 9
	ldrh	r3, [sp, #6]
	mov	r0, r3
	bl	pycom_read_byte
	str	r0, [sp, #12]
	.loc 3 301 8
	b	.L133
.L135:
	.loc 3 301 53 discriminator 3
	ldrh	r3, [sp, #6]
	mov	r0, r3
	bl	pycom_read_byte
	str	r0, [sp, #12]
.L133:
	.loc 3 301 24 discriminator 1
	ldr	r3, .L153
	ldrb	r3, [r3]	@ zero_extendqisi2
	.loc 3 301 8 discriminator 1
	cmp	r3, #85
	beq	.L134
	.loc 3 301 38 discriminator 2
	ldr	r3, [sp, #12]
	cmp	r3, #0
	beq	.L135
.L134:
	.loc 3 302 5
	ldr	r3, [sp, #12]
	cmp	r3, #0
	beq	.L136
	.loc 3 302 18 discriminator 1
	ldr	r3, [sp, #12]
	b	.L137
.L136:
	.loc 3 305 9
	ldrh	r3, [sp, #6]
	mov	r0, r3
	bl	pycom_read_byte
	str	r0, [sp, #12]
	.loc 3 306 5
	ldr	r3, [sp, #12]
	cmp	r3, #0
	beq	.L138
	.loc 3 306 18 discriminator 1
	ldr	r3, [sp, #12]
	b	.L137
.L138:
	.loc 3 307 21
	ldr	r3, .L153
	ldrb	r2, [r3]	@ zero_extendqisi2
	ldr	r3, .L153+4
	strb	r2, [r3]
	.loc 3 310 9
	ldrh	r3, [sp, #6]
	mov	r0, r3
	bl	pycom_read_byte
	str	r0, [sp, #12]
	.loc 3 311 5
	ldr	r3, [sp, #12]
	cmp	r3, #0
	beq	.L139
	.loc 3 311 18 discriminator 1
	ldr	r3, [sp, #12]
	b	.L137
.L139:
	.loc 3 312 21
	ldr	r3, .L153
	ldrb	r2, [r3]	@ zero_extendqisi2
	ldr	r3, .L153+8
	strb	r2, [r3]
	.loc 3 315 24
	ldr	r3, .L153+8
	ldrb	r3, [r3]	@ zero_extendqisi2
	.loc 3 315 5
	cmp	r3, #0
	beq	.L140
	.loc 3 316 26
	ldr	r3, .L153+4
	ldrb	r3, [r3]	@ zero_extendqisi2
	.loc 3 316 7
	cmp	r3, #2
	bne	.L141
	.loc 3 318 28
	ldr	r3, .L153+8
	ldrb	r3, [r3]	@ zero_extendqisi2
	.loc 3 318 9
	cmp	r3, #1
	beq	.L142
	.loc 3 318 41 discriminator 1
	movs	r3, #5
	b	.L137
.L142:
	.loc 3 319 13
	ldrh	r3, [sp, #6]
	mov	r0, r3
	bl	pycom_read_payload_uint16
	str	r0, [sp, #12]
	b	.L140
.L141:
	.loc 3 322 31
	ldr	r3, .L153+4
	ldrb	r3, [r3]	@ zero_extendqisi2
	.loc 3 322 12
	cmp	r3, #18
	beq	.L143
	.loc 3 323 31 discriminator 1
	ldr	r3, .L153+4
	ldrb	r3, [r3]	@ zero_extendqisi2
	.loc 3 322 51 discriminator 1
	cmp	r3, #19
	beq	.L143
	.loc 3 324 31
	ldr	r3, .L153+4
	ldrb	r3, [r3]	@ zero_extendqisi2
	.loc 3 323 51
	cmp	r3, #21
	bne	.L144
.L143:
	.loc 3 326 28
	ldr	r3, .L153+8
	ldrb	r3, [r3]	@ zero_extendqisi2
	.loc 3 326 9
	cmp	r3, #3
	beq	.L145
	.loc 3 326 41 discriminator 1
	movs	r3, #5
	b	.L137
.L145:
	.loc 3 327 13
	ldrh	r3, [sp, #6]
	mov	r0, r3
	bl	pycom_read_payload_uint16
	str	r0, [sp, #12]
	.loc 3 327 11
	b	.L140
.L144:
	.loc 3 330 31
	ldr	r3, .L153+4
	ldrb	r3, [r3]	@ zero_extendqisi2
	.loc 3 330 12
	cmp	r3, #33
	beq	.L146
	.loc 3 331 31 discriminator 1
	ldr	r3, .L153+4
	ldrb	r3, [r3]	@ zero_extendqisi2
	.loc 3 330 49 discriminator 1
	cmp	r3, #34
	beq	.L146
	.loc 3 332 31
	ldr	r3, .L153+4
	ldrb	r3, [r3]	@ zero_extendqisi2
	.loc 3 331 50
	cmp	r3, #35
	beq	.L146
	.loc 3 333 31
	ldr	r3, .L153+4
	ldrb	r3, [r3]	@ zero_extendqisi2
	.loc 3 332 47
	cmp	r3, #36
	beq	.L146
	.loc 3 334 31
	ldr	r3, .L153+4
	ldrb	r3, [r3]	@ zero_extendqisi2
	.loc 3 333 48
	cmp	r3, #37
	beq	.L146
	.loc 3 335 31
	ldr	r3, .L153+4
	ldrb	r3, [r3]	@ zero_extendqisi2
	.loc 3 334 48
	cmp	r3, #38
	beq	.L146
	.loc 3 336 31
	ldr	r3, .L153+4
	ldrb	r3, [r3]	@ zero_extendqisi2
	.loc 3 335 48
	cmp	r3, #39
	beq	.L146
	.loc 3 337 31
	ldr	r3, .L153+4
	ldrb	r3, [r3]	@ zero_extendqisi2
	.loc 3 336 48
	cmp	r3, #40
	beq	.L146
	.loc 3 338 31
	ldr	r3, .L153+4
	ldrb	r3, [r3]	@ zero_extendqisi2
	.loc 3 337 48
	cmp	r3, #41
	bne	.L147
.L146:
	.loc 3 340 28
	ldr	r3, .L153+8
	ldrb	r3, [r3]	@ zero_extendqisi2
	.loc 3 340 9
	cmp	r3, #3
	beq	.L148
	.loc 3 340 41 discriminator 1
	movs	r3, #5
	b	.L137
.L148:
	.loc 3 341 13
	ldrh	r3, [sp, #6]
	mov	r0, r3
	bl	pycom_read_payload_f
	str	r0, [sp, #12]
	.loc 3 341 11
	b	.L140
.L147:
	.loc 3 350 31
	ldr	r3, .L153+4
	ldrb	r3, [r3]	@ zero_extendqisi2
	.loc 3 350 12
	cmp	r3, #153
	bne	.L149
	.loc 3 351 13
	ldrh	r3, [sp, #6]
	mov	r0, r3
	bl	pycom_read_payload_f
	str	r0, [sp, #12]
	b	.L140
.L149:
	.loc 3 354 17
	movs	r3, #3
	b	.L137
.L140:
	.loc 3 356 5
	ldr	r3, [sp, #12]
	cmp	r3, #0
	beq	.L150
	.loc 3 356 18 discriminator 1
	ldr	r3, [sp, #12]
	b	.L137
.L150:
	.loc 3 359 9
	ldrh	r3, [sp, #6]
	mov	r0, r3
	bl	pycom_read_byte
	str	r0, [sp, #12]
	.loc 3 360 5
	ldr	r3, [sp, #12]
	cmp	r3, #0
	beq	.L151
	.loc 3 360 18 discriminator 1
	ldr	r3, [sp, #12]
	b	.L137
.L151:
	.loc 3 361 21
	ldr	r3, .L153
	ldrb	r3, [r3]	@ zero_extendqisi2
	.loc 3 361 5
	cmp	r3, #85
	beq	.L152
	.loc 3 361 43 discriminator 1
	movs	r3, #2
	b	.L137
.L152:
	.loc 3 364 10
	movs	r3, #0
.L137:
	.loc 3 366 1
	mov	r0, r3
	add	sp, sp, #20
.LCFI37:
	@ sp needed
	ldr	pc, [sp], #4
.L154:
	.align	2
.L153:
	.word	pycom_uart_msg
	.word	pycom_uart_cmd_id
	.word	pycom_uart_pl_len
.LFE242:
	.size	pycom_read_pck, .-pycom_read_pck
	.section	.text.pycom_parse_pck,"ax",%progbits
	.align	1
	.global	pycom_parse_pck
	.syntax unified
	.thumb
	.thumb_func
	.type	pycom_parse_pck, %function
pycom_parse_pck:
.LFB243:
	.loc 3 369 27
	@ args = 0, pretend = 0, frame = 8
	@ frame_needed = 0, uses_anonymous_args = 0
	push	{lr}
.LCFI38:
	sub	sp, sp, #20
.LCFI39:
	.loc 3 370 12
	movs	r3, #0
	str	r3, [sp, #12]
	.loc 3 372 3
	ldr	r3, .L223
	ldrb	r3, [r3]	@ zero_extendqisi2
	cmp	r3, #153
	bhi	.L156
	adr	r2, .L158
	ldr	pc, [r2, r3, lsl #2]
	.p2align 2
.L158:
	.word	.L177+1
	.word	.L220+1
	.word	.L175+1
	.word	.L174+1
	.word	.L173+1
	.word	.L156+1
	.word	.L156+1
	.word	.L156+1
	.word	.L156+1
	.word	.L156+1
	.word	.L156+1
	.word	.L156+1
	.word	.L156+1
	.word	.L156+1
	.word	.L156+1
	.word	.L156+1
	.word	.L156+1
	.word	.L172+1
	.word	.L171+1
	.word	.L170+1
	.word	.L169+1
	.word	.L168+1
	.word	.L156+1
	.word	.L156+1
	.word	.L156+1
	.word	.L156+1
	.word	.L156+1
	.word	.L156+1
	.word	.L156+1
	.word	.L156+1
	.word	.L156+1
	.word	.L156+1
	.word	.L156+1
	.word	.L167+1
	.word	.L166+1
	.word	.L165+1
	.word	.L164+1
	.word	.L163+1
	.word	.L162+1
	.word	.L161+1
	.word	.L160+1
	.word	.L159+1
	.word	.L156+1
	.word	.L156+1
	.word	.L156+1
	.word	.L156+1
	.word	.L156+1
	.word	.L156+1
	.word	.L156+1
	.word	.L156+1
	.word	.L156+1
	.word	.L156+1
	.word	.L156+1
	.word	.L156+1
	.word	.L156+1
	.word	.L156+1
	.word	.L156+1
	.word	.L156+1
	.word	.L156+1
	.word	.L156+1
	.word	.L156+1
	.word	.L156+1
	.word	.L156+1
	.word	.L156+1
	.word	.L156+1
	.word	.L156+1
	.word	.L156+1
	.word	.L156+1
	.word	.L156+1
	.word	.L156+1
	.word	.L156+1
	.word	.L156+1
	.word	.L156+1
	.word	.L156+1
	.word	.L156+1
	.word	.L156+1
	.word	.L156+1
	.word	.L156+1
	.word	.L156+1
	.word	.L156+1
	.word	.L156+1
	.word	.L156+1
	.word	.L156+1
	.word	.L156+1
	.word	.L156+1
	.word	.L156+1
	.word	.L156+1
	.word	.L156+1
	.word	.L156+1
	.word	.L156+1
	.word	.L156+1
	.word	.L156+1
	.word	.L156+1
	.word	.L156+1
	.word	.L156+1
	.word	.L156+1
	.word	.L156+1
	.word	.L156+1
	.word	.L156+1
	.word	.L156+1
	.word	.L156+1
	.word	.L156+1
	.word	.L156+1
	.word	.L156+1
	.word	.L156+1
	.word	.L156+1
	.word	.L156+1
	.word	.L156+1
	.word	.L156+1
	.word	.L156+1
	.word	.L156+1
	.word	.L156+1
	.word	.L156+1
	.word	.L156+1
	.word	.L156+1
	.word	.L156+1
	.word	.L156+1
	.word	.L156+1
	.word	.L156+1
	.word	.L156+1
	.word	.L156+1
	.word	.L156+1
	.word	.L156+1
	.word	.L156+1
	.word	.L156+1
	.word	.L156+1
	.word	.L156+1
	.word	.L156+1
	.word	.L156+1
	.word	.L156+1
	.word	.L156+1
	.word	.L156+1
	.word	.L156+1
	.word	.L156+1
	.word	.L156+1
	.word	.L156+1
	.word	.L156+1
	.word	.L156+1
	.word	.L156+1
	.word	.L156+1
	.word	.L156+1
	.word	.L156+1
	.word	.L156+1
	.word	.L156+1
	.word	.L156+1
	.word	.L156+1
	.word	.L156+1
	.word	.L156+1
	.word	.L156+1
	.word	.L156+1
	.word	.L156+1
	.word	.L156+1
	.word	.L156+1
	.word	.L157+1
	.p2align 1
.L177:
.LBB11:
	.loc 3 374 10
	ldr	r3, .L223+4
	ldrb	r3, [r3]	@ zero_extendqisi2
	eor	r3, r3, #1
	uxtb	r3, r3
	.loc 3 374 9
	cmp	r3, #0
	beq	.L178
	.loc 3 374 44 discriminator 1
	movs	r3, #8
	b	.L179
.L178:
	.loc 3 375 31
	ldr	r3, .L223+8
	movs	r2, #1
	str	r2, [r3]
	.loc 3 376 32
	ldr	r3, .L223+4
	movs	r2, #0
	strb	r2, [r3]
	.loc 3 378 7
	b	.L180
.L175:
	.loc 3 387 10
	ldr	r3, .L223+4
	ldrb	r3, [r3]	@ zero_extendqisi2
	eor	r3, r3, #1
	uxtb	r3, r3
	.loc 3 387 9
	cmp	r3, #0
	beq	.L181
	.loc 3 387 44 discriminator 1
	movs	r3, #8
	b	.L179
.L181:
	.loc 3 388 54
	ldr	r3, .L223+12
	ldrh	r3, [r3]
	mov	r2, r3
	.loc 3 388 31
	ldr	r3, .L223+8
	ldr	r3, [r3]
	add	r3, r3, r2
	ldr	r2, .L223+8
	str	r3, [r2]
	.loc 3 389 13
	ldr	r2, .L223
	movs	r1, #1
	movs	r0, #0
	bl	pycom_write_pck_uint8
	str	r0, [sp, #12]
	.loc 3 390 7
	b	.L180
.L174:
	.loc 3 393 10
	ldr	r3, .L223+4
	ldrb	r3, [r3]	@ zero_extendqisi2
	.loc 3 393 9
	cmp	r3, #0
	bne	.L182
	.loc 3 393 35 discriminator 2
	ldr	r3, .L223+16
	ldrb	r3, [r3]	@ zero_extendqisi2
	cmp	r3, #0
	beq	.L183
.L182:
	.loc 3 393 69 discriminator 3
	movs	r3, #7
	b	.L179
.L183:
	.loc 3 394 23
	ldr	r3, .L223+20
	movs	r2, #1
	strb	r2, [r3]
	.loc 3 395 7
	b	.L180
.L173:
	.loc 3 398 10
	ldr	r3, .L223+4
	ldrb	r3, [r3]	@ zero_extendqisi2
	.loc 3 398 9
	cmp	r3, #0
	bne	.L184
	.loc 3 398 35 discriminator 2
	ldr	r3, .L223+16
	ldrb	r3, [r3]	@ zero_extendqisi2
	cmp	r3, #0
	beq	.L185
.L184:
	.loc 3 398 69 discriminator 3
	movs	r3, #7
	b	.L179
.L185:
	.loc 3 399 27
	ldr	r3, .L223
	ldrb	r2, [r3]	@ zero_extendqisi2
	ldr	r3, .L223+24
	strb	r2, [r3]
	.loc 3 400 23
	ldr	r3, .L223+20
	movs	r2, #0
	strb	r2, [r3]
	.loc 3 401 7
	b	.L180
.L171:
	.loc 3 404 10
	ldr	r3, .L223+4
	ldrb	r3, [r3]	@ zero_extendqisi2
	.loc 3 404 9
	cmp	r3, #0
	bne	.L186
	.loc 3 404 35 discriminator 2
	ldr	r3, .L223+16
	ldrb	r3, [r3]	@ zero_extendqisi2
	cmp	r3, #0
	beq	.L187
.L186:
	.loc 3 404 69 discriminator 3
	movs	r3, #7
	b	.L179
.L187:
	.loc 3 405 30
	ldr	r3, .L223+16
	movs	r2, #1
	strb	r2, [r3]
	.loc 3 406 27
	ldr	r3, .L223
	ldrb	r2, [r3]	@ zero_extendqisi2
	ldr	r3, .L223+24
	strb	r2, [r3]
	.loc 3 409 30
	ldr	r3, .L223+12
	ldrh	r3, [r3, #4]
	.loc 3 409 9
	cmp	r3, #0
	beq	.L188
	.loc 3 409 41 discriminator 1
	ldr	r3, .L223+12
	ldrh	r0, [r3]
	ldr	r3, .L223+12
	ldrh	r3, [r3, #2]
	str	r3, [sp]
	movs	r3, #10
	ldr	r2, .L223+28
	movs	r1, #3
	bl	pycom_stream_pck_f
	str	r0, [sp, #12]
	b	.L189
.L224:
	.align	2
.L223:
	.word	pycom_uart_cmd_id
	.word	pycom_run_streaming_flag
	.word	pycom_stream_window_ctr
	.word	pycom_uart_pl_uint16
	.word	pycom_run_routine_flag
	.word	pycom_menu_flag
	.word	pycom_executing_cmd
	.word	lis2dh_get_acc
.L188:
	.loc 3 411 18
	ldr	r3, .L225
	ldrh	r0, [r3]
	ldr	r3, .L225
	ldrh	r3, [r3, #2]
	str	r3, [sp]
	movs	r3, #10
	ldr	r2, .L225+4
	movs	r1, #3
	bl	pycom_stream_pck_f
	str	r0, [sp, #12]
.L189:
	.loc 3 413 30
	ldr	r3, .L225+8
	movs	r2, #0
	strb	r2, [r3]
	.loc 3 414 7
	b	.L180
.L170:
	.loc 3 417 10
	ldr	r3, .L225+12
	ldrb	r3, [r3]	@ zero_extendqisi2
	.loc 3 417 9
	cmp	r3, #0
	bne	.L190
	.loc 3 417 35 discriminator 2
	ldr	r3, .L225+8
	ldrb	r3, [r3]	@ zero_extendqisi2
	cmp	r3, #0
	beq	.L191
.L190:
	.loc 3 417 69 discriminator 3
	movs	r3, #7
	b	.L179
.L191:
	.loc 3 418 30
	ldr	r3, .L225+8
	movs	r2, #1
	strb	r2, [r3]
	.loc 3 419 27
	ldr	r3, .L225+16
	ldrb	r2, [r3]	@ zero_extendqisi2
	ldr	r3, .L225+20
	strb	r2, [r3]
	.loc 3 422 30
	ldr	r3, .L225
	ldrh	r3, [r3, #4]
	.loc 3 422 9
	cmp	r3, #0
	beq	.L192
	.loc 3 422 41 discriminator 1
	ldr	r3, .L225
	ldrh	r0, [r3]
	ldr	r3, .L225
	ldrh	r3, [r3, #2]
	str	r3, [sp]
	movs	r3, #10
	ldr	r2, .L225+24
	movs	r1, #3
	bl	pycom_stream_pck_f
	str	r0, [sp, #12]
	b	.L193
.L192:
	.loc 3 424 18
	ldr	r3, .L225
	ldrh	r0, [r3]
	ldr	r3, .L225
	ldrh	r3, [r3, #2]
	str	r3, [sp]
	movs	r3, #10
	ldr	r2, .L225+28
	movs	r1, #3
	bl	pycom_stream_pck_f
	str	r0, [sp, #12]
.L193:
	.loc 3 426 30
	ldr	r3, .L225+8
	movs	r2, #0
	strb	r2, [r3]
	.loc 3 427 7
	b	.L180
.L168:
	.loc 3 430 10
	ldr	r3, .L225+12
	ldrb	r3, [r3]	@ zero_extendqisi2
	.loc 3 430 9
	cmp	r3, #0
	bne	.L194
	.loc 3 430 35 discriminator 2
	ldr	r3, .L225+8
	ldrb	r3, [r3]	@ zero_extendqisi2
	cmp	r3, #0
	beq	.L195
.L194:
	.loc 3 430 69 discriminator 3
	movs	r3, #7
	b	.L179
.L195:
	.loc 3 431 30
	ldr	r3, .L225+8
	movs	r2, #1
	strb	r2, [r3]
	.loc 3 432 27
	ldr	r3, .L225+16
	ldrb	r2, [r3]	@ zero_extendqisi2
	ldr	r3, .L225+20
	strb	r2, [r3]
	.loc 3 434 13
	ldr	r3, .L225
	ldrh	r0, [r3]
	ldr	r3, .L225
	ldrh	r3, [r3, #2]
	str	r3, [sp]
	movs	r3, #10
	ldr	r2, .L225+32
	movs	r1, #6
	bl	pycom_stream_pck_f
	str	r0, [sp, #12]
	.loc 3 436 30
	ldr	r3, .L225+8
	movs	r2, #0
	strb	r2, [r3]
	.loc 3 437 7
	b	.L180
.L169:
	.loc 3 440 10
	ldr	r3, .L225+12
	ldrb	r3, [r3]	@ zero_extendqisi2
	.loc 3 440 9
	cmp	r3, #0
	bne	.L196
	.loc 3 440 35 discriminator 2
	ldr	r3, .L225+8
	ldrb	r3, [r3]	@ zero_extendqisi2
	cmp	r3, #0
	beq	.L221
.L196:
	.loc 3 440 69 discriminator 3
	movs	r3, #7
	b	.L179
.L172:
	.loc 3 445 10
	ldr	r3, .L225+12
	ldrb	r3, [r3]	@ zero_extendqisi2
	.loc 3 445 9
	cmp	r3, #0
	bne	.L198
	.loc 3 445 35 discriminator 2
	ldr	r3, .L225+8
	ldrb	r3, [r3]	@ zero_extendqisi2
	cmp	r3, #0
	beq	.L222
.L198:
	.loc 3 445 69 discriminator 3
	movs	r3, #7
	b	.L179
.L167:
	.loc 3 450 10
	ldr	r3, .L225+12
	ldrb	r3, [r3]	@ zero_extendqisi2
	.loc 3 450 9
	cmp	r3, #0
	bne	.L200
	.loc 3 450 35 discriminator 2
	ldr	r3, .L225+8
	ldrb	r3, [r3]	@ zero_extendqisi2
	cmp	r3, #0
	beq	.L201
.L200:
	.loc 3 450 69 discriminator 3
	movs	r3, #7
	b	.L179
.L201:
	.loc 3 451 30
	ldr	r3, .L225+8
	movs	r2, #1
	strb	r2, [r3]
	.loc 3 452 27
	ldr	r3, .L225+16
	ldrb	r2, [r3]	@ zero_extendqisi2
	ldr	r3, .L225+20
	strb	r2, [r3]
	.loc 3 453 13
	ldr	r0, .L225+36
	bl	man_fds_set_acc_bias
	str	r0, [sp, #12]
	.loc 3 454 30
	ldr	r3, .L225+8
	movs	r2, #0
	strb	r2, [r3]
	.loc 3 456 7
	b	.L180
.L166:
	.loc 3 459 10
	ldr	r3, .L225+12
	ldrb	r3, [r3]	@ zero_extendqisi2
	.loc 3 459 9
	cmp	r3, #0
	bne	.L202
	.loc 3 459 35 discriminator 2
	ldr	r3, .L225+8
	ldrb	r3, [r3]	@ zero_extendqisi2
	cmp	r3, #0
	beq	.L203
.L202:
	.loc 3 459 69 discriminator 3
	movs	r3, #7
	b	.L179
.L203:
	.loc 3 460 30
	ldr	r3, .L225+8
	movs	r2, #1
	strb	r2, [r3]
	.loc 3 461 27
	ldr	r3, .L225+16
	ldrb	r2, [r3]	@ zero_extendqisi2
	ldr	r3, .L225+20
	strb	r2, [r3]
	.loc 3 462 13
	ldr	r0, .L225+36
	bl	man_fds_set_acc_scale
	mov	r3, r0
	.loc 3 462 11
	str	r3, [sp, #12]
	.loc 3 463 30
	ldr	r3, .L225+8
	movs	r2, #0
	strb	r2, [r3]
	.loc 3 465 7
	b	.L180
.L165:
	.loc 3 468 10
	ldr	r3, .L225+12
	ldrb	r3, [r3]	@ zero_extendqisi2
	.loc 3 468 9
	cmp	r3, #0
	bne	.L204
	.loc 3 468 35 discriminator 2
	ldr	r3, .L225+8
	ldrb	r3, [r3]	@ zero_extendqisi2
	cmp	r3, #0
	beq	.L205
.L204:
	.loc 3 468 69 discriminator 3
	movs	r3, #7
	b	.L179
.L205:
	.loc 3 469 30
	ldr	r3, .L225+8
	movs	r2, #1
	strb	r2, [r3]
	.loc 3 470 27
	ldr	r3, .L225+16
	ldrb	r2, [r3]	@ zero_extendqisi2
	ldr	r3, .L225+20
	strb	r2, [r3]
	.loc 3 471 13
	ldr	r0, .L225+36
	bl	man_fds_set_mag_hi
	str	r0, [sp, #12]
	.loc 3 472 30
	ldr	r3, .L225+8
	movs	r2, #0
	strb	r2, [r3]
	.loc 3 474 7
	b	.L180
.L164:
	.loc 3 487 10
	ldr	r3, .L225+12
	ldrb	r3, [r3]	@ zero_extendqisi2
	.loc 3 487 9
	cmp	r3, #0
	bne	.L206
	.loc 3 487 35 discriminator 2
	ldr	r3, .L225+8
	ldrb	r3, [r3]	@ zero_extendqisi2
	cmp	r3, #0
	beq	.L207
.L206:
	.loc 3 487 69 discriminator 3
	movs	r3, #7
	b	.L179
.L207:
	.loc 3 488 30
	ldr	r3, .L225+8
	movs	r2, #1
	strb	r2, [r3]
	.loc 3 489 27
	ldr	r3, .L225+16
	ldrb	r2, [r3]	@ zero_extendqisi2
	ldr	r3, .L225+20
	strb	r2, [r3]
	.loc 3 491 7
	movs	r2, #12
	ldr	r1, .L225+36
	ldr	r0, .L225+40
	bl	memcpy
	.loc 3 492 30
	ldr	r3, .L225+8
	movs	r2, #0
	strb	r2, [r3]
	.loc 3 495 7
	b	.L180
.L163:
	.loc 3 498 10
	ldr	r3, .L225+12
	ldrb	r3, [r3]	@ zero_extendqisi2
	.loc 3 498 9
	cmp	r3, #0
	bne	.L208
	.loc 3 498 35 discriminator 2
	ldr	r3, .L225+8
	ldrb	r3, [r3]	@ zero_extendqisi2
	cmp	r3, #0
	beq	.L209
.L208:
	.loc 3 498 69 discriminator 3
	movs	r3, #7
	b	.L179
.L209:
	.loc 3 499 30
	ldr	r3, .L225+8
	movs	r2, #1
	strb	r2, [r3]
	.loc 3 500 27
	ldr	r3, .L225+16
	ldrb	r2, [r3]	@ zero_extendqisi2
	ldr	r3, .L225+20
	strb	r2, [r3]
	.loc 3 502 7
	movs	r2, #12
	ldr	r1, .L225+36
	ldr	r0, .L225+44
	bl	memcpy
	.loc 3 503 30
	ldr	r3, .L225+8
	movs	r2, #0
	strb	r2, [r3]
	.loc 3 506 7
	b	.L180
.L162:
	.loc 3 509 10
	ldr	r3, .L225+12
	ldrb	r3, [r3]	@ zero_extendqisi2
	.loc 3 509 9
	cmp	r3, #0
	bne	.L210
	.loc 3 509 35 discriminator 2
	ldr	r3, .L225+8
	ldrb	r3, [r3]	@ zero_extendqisi2
	cmp	r3, #0
	beq	.L211
.L210:
	.loc 3 509 69 discriminator 3
	movs	r3, #7
	b	.L179
.L211:
	.loc 3 510 30
	ldr	r3, .L225+8
	movs	r2, #1
	strb	r2, [r3]
	.loc 3 511 27
	ldr	r3, .L225+16
	ldrb	r2, [r3]	@ zero_extendqisi2
	ldr	r3, .L225+20
	strb	r2, [r3]
	.loc 3 513 7
	movs	r2, #12
	ldr	r1, .L225+36
	ldr	r0, .L225+48
	bl	memcpy
	.loc 3 515 13
	ldr	r0, .L225+40
	bl	man_fds_set_mag_si
	str	r0, [sp, #12]
	.loc 3 516 30
	ldr	r3, .L225+8
	movs	r2, #0
	strb	r2, [r3]
	.loc 3 519 7
	b	.L180
.L161:
	.loc 3 522 10
	ldr	r3, .L225+12
	ldrb	r3, [r3]	@ zero_extendqisi2
	.loc 3 522 9
	cmp	r3, #0
	bne	.L212
	.loc 3 522 35 discriminator 2
	ldr	r3, .L225+8
	ldrb	r3, [r3]	@ zero_extendqisi2
	cmp	r3, #0
	beq	.L213
.L212:
	.loc 3 522 69 discriminator 3
	movs	r3, #7
	b	.L179
.L213:
	.loc 3 523 30
	ldr	r3, .L225+8
	movs	r2, #1
	strb	r2, [r3]
	.loc 3 524 27
	ldr	r3, .L225+16
	ldrb	r2, [r3]	@ zero_extendqisi2
	ldr	r3, .L225+20
	strb	r2, [r3]
	.loc 3 525 13
	ldr	r0, .L225+36
	bl	man_fds_set_acc_unc
	str	r0, [sp, #12]
	.loc 3 526 30
	ldr	r3, .L225+8
	movs	r2, #0
	strb	r2, [r3]
	.loc 3 528 7
	b	.L180
.L226:
	.align	2
.L225:
	.word	pycom_uart_pl_uint16
	.word	lis2dh_get_acc_calibrated
	.word	pycom_run_routine_flag
	.word	pycom_run_streaming_flag
	.word	pycom_uart_cmd_id
	.word	pycom_executing_cmd
	.word	lis2mdl_get_mag
	.word	lis2mdl_get_mag_calibrated
	.word	pycom_get_acc_mag
	.word	pycom_uart_pl_f
	.word	pycom_mag_si_buf
	.word	pycom_mag_si_buf+12
	.word	pycom_mag_si_buf+24
.L160:
	.loc 3 531 10
	ldr	r3, .L227
	ldrb	r3, [r3]	@ zero_extendqisi2
	.loc 3 531 9
	cmp	r3, #0
	bne	.L214
	.loc 3 531 35 discriminator 2
	ldr	r3, .L227+4
	ldrb	r3, [r3]	@ zero_extendqisi2
	cmp	r3, #0
	beq	.L215
.L214:
	.loc 3 531 69 discriminator 3
	movs	r3, #7
	b	.L179
.L215:
	.loc 3 532 30
	ldr	r3, .L227+4
	movs	r2, #1
	strb	r2, [r3]
	.loc 3 533 27
	ldr	r3, .L227+8
	ldrb	r2, [r3]	@ zero_extendqisi2
	ldr	r3, .L227+12
	strb	r2, [r3]
	.loc 3 534 13
	ldr	r0, .L227+16
	bl	man_fds_set_mag_unc
	str	r0, [sp, #12]
	.loc 3 535 30
	ldr	r3, .L227+4
	movs	r2, #0
	strb	r2, [r3]
	.loc 3 537 7
	b	.L180
.L159:
	.loc 3 540 10
	ldr	r3, .L227
	ldrb	r3, [r3]	@ zero_extendqisi2
	.loc 3 540 9
	cmp	r3, #0
	bne	.L216
	.loc 3 540 35 discriminator 2
	ldr	r3, .L227+4
	ldrb	r3, [r3]	@ zero_extendqisi2
	cmp	r3, #0
	beq	.L217
.L216:
	.loc 3 540 69 discriminator 3
	movs	r3, #7
	b	.L179
.L217:
	.loc 3 541 30
	ldr	r3, .L227+4
	movs	r2, #1
	strb	r2, [r3]
	.loc 3 542 27
	ldr	r3, .L227+8
	ldrb	r2, [r3]	@ zero_extendqisi2
	ldr	r3, .L227+12
	strb	r2, [r3]
	.loc 3 543 13
	ldr	r0, .L227+16
	bl	man_fds_set_uwb_unc
	str	r0, [sp, #12]
	.loc 3 544 30
	ldr	r3, .L227+4
	movs	r2, #0
	strb	r2, [r3]
	.loc 3 546 7
	b	.L180
.L157:
	.loc 3 549 10
	ldr	r3, .L227
	ldrb	r3, [r3]	@ zero_extendqisi2
	.loc 3 549 9
	cmp	r3, #0
	bne	.L218
	.loc 3 549 35 discriminator 2
	ldr	r3, .L227+4
	ldrb	r3, [r3]	@ zero_extendqisi2
	cmp	r3, #0
	beq	.L219
.L218:
	.loc 3 549 69 discriminator 3
	movs	r3, #7
	b	.L179
.L219:
	.loc 3 550 30
	ldr	r3, .L227+4
	movs	r2, #1
	strb	r2, [r3]
	.loc 3 551 27
	ldr	r3, .L227+8
	ldrb	r2, [r3]	@ zero_extendqisi2
	ldr	r3, .L227+12
	strb	r2, [r3]
	.loc 3 552 13
	ldr	r3, .L227+20
	ldrb	r3, [r3]	@ zero_extendqisi2
	ldr	r2, .L227+16
	mov	r1, r3
	movs	r0, #2
	bl	pycom_write_pck_f
	str	r0, [sp, #12]
	.loc 3 553 30
	ldr	r3, .L227+4
	movs	r2, #0
	strb	r2, [r3]
	.loc 3 554 7
	b	.L180
.L156:
	.loc 3 557 11
	movs	r3, #4
	str	r3, [sp, #12]
	.loc 3 558 7
	b	.L180
.L220:
	.loc 3 384 7
	nop
	b	.L180
.L221:
	.loc 3 442 7
	nop
	b	.L180
.L222:
	.loc 3 447 7
	nop
.L180:
.LBE11:
	.loc 3 561 10
	ldr	r3, [sp, #12]
.L179:
	.loc 3 562 1
	mov	r0, r3
	add	sp, sp, #20
.LCFI40:
	@ sp needed
	ldr	pc, [sp], #4
.L228:
	.align	2
.L227:
	.word	pycom_run_streaming_flag
	.word	pycom_run_routine_flag
	.word	pycom_uart_cmd_id
	.word	pycom_executing_cmd
	.word	pycom_uart_pl_f
	.word	pycom_uart_pl_len
.LFE243:
	.size	pycom_parse_pck, .-pycom_parse_pck
	.section	.text.pycom_wait_for_pck,"ax",%progbits
	.align	1
	.global	pycom_wait_for_pck
	.syntax unified
	.thumb
	.thumb_func
	.type	pycom_wait_for_pck, %function
pycom_wait_for_pck:
.LFB244:
	.loc 3 565 73
	@ args = 0, pretend = 0, frame = 16
	@ frame_needed = 0, uses_anonymous_args = 0
	push	{lr}
.LCFI41:
	sub	sp, sp, #20
.LCFI42:
	mov	r3, r0
	mov	r2, r1
	strh	r3, [sp, #6]	@ movhi
	mov	r3, r2	@ movhi
	strh	r3, [sp, #4]	@ movhi
	.loc 3 567 12
	movs	r3, #0
	strh	r3, [sp, #12]	@ movhi
	.loc 3 568 12
	movs	r3, #11
	str	r3, [sp, #8]
	.loc 3 570 5
	ldrh	r3, [sp, #6]
	cmp	r3, #0
	bne	.L230
	.loc 3 570 36 discriminator 1
	ldrh	r3, [sp, #4]	@ movhi
	strh	r3, [sp, #14]	@ movhi
	b	.L232
.L230:
	.loc 3 571 19
	ldrh	r2, [sp, #4]
	ldrh	r3, [sp, #6]
	udiv	r3, r2, r3
	strh	r3, [sp, #14]	@ movhi
	.loc 3 573 8
	b	.L232
.L235:
	.loc 3 575 7
	ldrh	r2, [sp, #12]
	ldrh	r3, [sp, #14]
	cmp	r2, r3
	bls	.L233
	.loc 3 575 28 discriminator 1
	movs	r3, #12
	str	r3, [sp, #8]
	b	.L234
.L233:
	.loc 3 576 16
	ldrh	r3, [sp, #6]
	mov	r0, r3
	bl	pycom_read_pck
	str	r0, [sp, #8]
.L234:
	.loc 3 578 6
	ldrh	r3, [sp, #12]
	adds	r3, r3, #1
	strh	r3, [sp, #12]	@ movhi
.L232:
	.loc 3 573 8
	ldr	r3, [sp, #8]
	cmp	r3, #11
	beq	.L235
	.loc 3 581 5
	ldr	r3, [sp, #8]
	cmp	r3, #0
	bne	.L236
	.loc 3 582 11
	bl	pycom_parse_pck
	str	r0, [sp, #8]
.L236:
	.loc 3 585 10
	ldr	r3, [sp, #8]
	.loc 3 586 1
	mov	r0, r3
	add	sp, sp, #20
.LCFI43:
	@ sp needed
	ldr	pc, [sp], #4
.LFE244:
	.size	pycom_wait_for_pck, .-pycom_wait_for_pck
	.section	.text.pycom_wait_for_command,"ax",%progbits
	.align	1
	.global	pycom_wait_for_command
	.syntax unified
	.thumb
	.thumb_func
	.type	pycom_wait_for_command, %function
pycom_wait_for_command:
.LFB245:
	.loc 3 589 99
	@ args = 0, pretend = 0, frame = 16
	@ frame_needed = 0, uses_anonymous_args = 0
	push	{lr}
.LCFI44:
	sub	sp, sp, #20
.LCFI45:
	mov	r3, r0
	strh	r3, [sp, #6]	@ movhi
	mov	r3, r1	@ movhi
	strh	r3, [sp, #4]	@ movhi
	mov	r3, r2	@ movhi
	strh	r3, [sp, #2]	@ movhi
	.loc 3 591 12
	movs	r3, #0
	strh	r3, [sp, #12]	@ movhi
	.loc 3 592 12
	movs	r3, #12
	str	r3, [sp, #8]
	.loc 3 594 26
	ldr	r3, .L246
	movs	r2, #0
	strb	r2, [r3]
	.loc 3 595 28
	ldr	r3, .L246+4
	movs	r2, #0
	strb	r2, [r3]
	.loc 3 597 5
	ldrh	r3, [sp, #6]
	cmp	r3, #0
	bne	.L239
	.loc 3 597 36 discriminator 1
	ldrh	r3, [sp, #2]	@ movhi
	strh	r3, [sp, #14]	@ movhi
	b	.L241
.L239:
	.loc 3 598 19
	ldrh	r2, [sp, #2]
	ldrh	r3, [sp, #4]
	udiv	r3, r2, r3
	strh	r3, [sp, #14]	@ movhi
	.loc 3 600 8
	b	.L241
.L244:
	.loc 3 602 7
	ldrh	r2, [sp, #12]
	ldrh	r3, [sp, #14]
	cmp	r2, r3
	bls	.L242
	.loc 3 602 28 discriminator 1
	movs	r3, #13
	str	r3, [sp, #8]
	b	.L243
.L242:
	.loc 3 603 17
	ldrh	r2, [sp, #4]
	ldrh	r3, [sp, #6]
	mov	r1, r2
	mov	r0, r3
	bl	pycom_wait_for_pck
	str	r0, [sp, #8]
.L243:
	.loc 3 605 6
	ldrh	r3, [sp, #12]
	adds	r3, r3, #1
	strh	r3, [sp, #12]	@ movhi
.L241:
	.loc 3 600 8
	ldr	r3, [sp, #8]
	cmp	r3, #12
	beq	.L244
	.loc 3 608 10
	ldr	r3, [sp, #8]
	.loc 3 609 1
	mov	r0, r3
	add	sp, sp, #20
.LCFI46:
	@ sp needed
	ldr	pc, [sp], #4
.L247:
	.align	2
.L246:
	.word	pycom_run_routine_flag
	.word	pycom_run_streaming_flag
.LFE245:
	.size	pycom_wait_for_command, .-pycom_wait_for_command
	.section .rodata
	.align	2
.LC0:
	.ascii	"START_PYCOM\000"
	.section	.text.pycom_start,"ax",%progbits
	.align	1
	.global	pycom_start
	.syntax unified
	.thumb
	.thumb_func
	.type	pycom_start, %function
pycom_start:
.LFB246:
	.loc 3 614 85
	@ args = 0, pretend = 0, frame = 16
	@ frame_needed = 0, uses_anonymous_args = 0
	push	{lr}
.LCFI47:
	sub	sp, sp, #20
.LCFI48:
	mov	r3, r0
	strh	r3, [sp, #6]	@ movhi
	mov	r3, r1	@ movhi
	strh	r3, [sp, #4]	@ movhi
	mov	r3, r2	@ movhi
	strh	r3, [sp, #2]	@ movhi
	.loc 3 616 12
	movs	r3, #0
	strh	r3, [sp, #12]	@ movhi
	.loc 3 617 26
	ldr	r3, .L255
	movs	r2, #0
	strb	r2, [r3]
	.loc 3 618 28
	ldr	r3, .L255+4
	movs	r2, #0
	strb	r2, [r3]
	.loc 3 621 3
	ldr	r0, .L255+8
	bl	puts
	.loc 3 625 9
	ldrh	r2, [sp, #4]
	ldrh	r3, [sp, #6]
	mov	r1, r2
	mov	r0, r3
	bl	pycom_wait_for_pck
	mov	r3, r0
	.loc 3 625 7
	strh	r3, [sp, #10]	@ movhi
	.loc 3 626 3
	ldrh	r3, [sp, #10]	@ movhi
	uxtb	r3, r3
	mov	r0, r3
	bl	pycom_check_error
	.loc 3 629 5
	ldrh	r3, [sp, #6]
	cmp	r3, #0
	bne	.L249
	.loc 3 629 36 discriminator 1
	ldrh	r3, [sp, #2]	@ movhi
	strh	r3, [sp, #14]	@ movhi
	b	.L251
.L249:
	.loc 3 630 19
	ldrh	r2, [sp, #2]
	ldrh	r3, [sp, #4]
	udiv	r3, r2, r3
	strh	r3, [sp, #14]	@ movhi
	.loc 3 632 8
	b	.L251
.L254:
	.loc 3 634 11
	ldrh	r2, [sp, #4]
	ldrh	r3, [sp, #6]
	mov	r1, r2
	mov	r0, r3
	bl	pycom_wait_for_pck
	mov	r3, r0
	.loc 3 634 9
	strh	r3, [sp, #10]	@ movhi
	.loc 3 635 5
	ldrh	r3, [sp, #10]	@ movhi
	uxtb	r3, r3
	mov	r0, r3
	bl	pycom_check_error
	.loc 3 637 7
	ldrh	r3, [sp, #10]
	cmp	r3, #12
	bne	.L252
	.loc 3 637 39 discriminator 1
	ldrh	r3, [sp, #12]
	adds	r3, r3, #1
	strh	r3, [sp, #12]	@ movhi
	b	.L253
.L252:
	.loc 3 638 12
	movs	r3, #0
	strh	r3, [sp, #12]	@ movhi
.L253:
	.loc 3 640 7
	ldrh	r2, [sp, #12]
	ldrh	r3, [sp, #14]
	cmp	r2, r3
	bls	.L251
	.loc 3 640 40 discriminator 1
	ldr	r3, .L255+12
	movs	r2, #0
	strb	r2, [r3]
.L251:
	.loc 3 632 9
	ldr	r3, .L255+12
	ldrb	r3, [r3]	@ zero_extendqisi2
	.loc 3 632 8
	cmp	r3, #0
	bne	.L254
	.loc 3 644 1
	nop
	nop
	add	sp, sp, #20
.LCFI49:
	@ sp needed
	ldr	pc, [sp], #4
.L256:
	.align	2
.L255:
	.word	pycom_run_routine_flag
	.word	pycom_run_streaming_flag
	.word	.LC0
	.word	pycom_menu_flag
.LFE246:
	.size	pycom_start, .-pycom_start
	.section	.debug_frame,"",%progbits
.Lframe0:
	.4byte	.LECIE0-.LSCIE0
.LSCIE0:
	.4byte	0xffffffff
	.byte	0x3
	.ascii	"\000"
	.uleb128 0x1
	.sleb128 -4
	.uleb128 0xe
	.byte	0xc
	.uleb128 0xd
	.uleb128 0
	.align	2
.LECIE0:
.LSFDE0:
	.4byte	.LEFDE0-.LASFDE0
.LASFDE0:
	.4byte	.Lframe0
	.4byte	.LFB124
	.4byte	.LFE124-.LFB124
	.byte	0x4
	.4byte	.LCFI0-.LFB124
	.byte	0xe
	.uleb128 0x10
	.byte	0x4
	.4byte	.LCFI1-.LCFI0
	.byte	0xe
	.uleb128 0
	.align	2
.LEFDE0:
.LSFDE2:
	.4byte	.LEFDE2-.LASFDE2
.LASFDE2:
	.4byte	.Lframe0
	.4byte	.LFB125
	.4byte	.LFE125-.LFB125
	.byte	0x4
	.4byte	.LCFI2-.LFB125
	.byte	0xe
	.uleb128 0x4
	.byte	0x8e
	.uleb128 0x1
	.byte	0x4
	.4byte	.LCFI3-.LCFI2
	.byte	0xe
	.uleb128 0x10
	.byte	0x4
	.4byte	.LCFI4-.LCFI3
	.byte	0xe
	.uleb128 0x4
	.align	2
.LEFDE2:
.LSFDE4:
	.4byte	.LEFDE4-.LASFDE4
.LASFDE4:
	.4byte	.Lframe0
	.4byte	.LFB126
	.4byte	.LFE126-.LFB126
	.align	2
.LEFDE4:
.LSFDE6:
	.4byte	.LEFDE6-.LASFDE6
.LASFDE6:
	.4byte	.Lframe0
	.4byte	.LFB127
	.4byte	.LFE127-.LFB127
	.align	2
.LEFDE6:
.LSFDE8:
	.4byte	.LEFDE8-.LASFDE8
.LASFDE8:
	.4byte	.Lframe0
	.4byte	.LFB128
	.4byte	.LFE128-.LFB128
	.align	2
.LEFDE8:
.LSFDE10:
	.4byte	.LEFDE10-.LASFDE10
.LASFDE10:
	.4byte	.Lframe0
	.4byte	.LFB129
	.4byte	.LFE129-.LFB129
	.align	2
.LEFDE10:
.LSFDE12:
	.4byte	.LEFDE12-.LASFDE12
.LASFDE12:
	.4byte	.Lframe0
	.4byte	.LFB130
	.4byte	.LFE130-.LFB130
	.align	2
.LEFDE12:
.LSFDE14:
	.4byte	.LEFDE14-.LASFDE14
.LASFDE14:
	.4byte	.Lframe0
	.4byte	.LFB131
	.4byte	.LFE131-.LFB131
	.align	2
.LEFDE14:
.LSFDE16:
	.4byte	.LEFDE16-.LASFDE16
.LASFDE16:
	.4byte	.Lframe0
	.4byte	.LFB132
	.4byte	.LFE132-.LFB132
	.align	2
.LEFDE16:
.LSFDE18:
	.4byte	.LEFDE18-.LASFDE18
.LASFDE18:
	.4byte	.Lframe0
	.4byte	.LFB133
	.4byte	.LFE133-.LFB133
	.align	2
.LEFDE18:
.LSFDE20:
	.4byte	.LEFDE20-.LASFDE20
.LASFDE20:
	.4byte	.Lframe0
	.4byte	.LFB134
	.4byte	.LFE134-.LFB134
	.align	2
.LEFDE20:
.LSFDE22:
	.4byte	.LEFDE22-.LASFDE22
.LASFDE22:
	.4byte	.Lframe0
	.4byte	.LFB135
	.4byte	.LFE135-.LFB135
	.align	2
.LEFDE22:
.LSFDE24:
	.4byte	.LEFDE24-.LASFDE24
.LASFDE24:
	.4byte	.Lframe0
	.4byte	.LFB136
	.4byte	.LFE136-.LFB136
	.align	2
.LEFDE24:
.LSFDE26:
	.4byte	.LEFDE26-.LASFDE26
.LASFDE26:
	.4byte	.Lframe0
	.4byte	.LFB137
	.4byte	.LFE137-.LFB137
	.align	2
.LEFDE26:
.LSFDE28:
	.4byte	.LEFDE28-.LASFDE28
.LASFDE28:
	.4byte	.Lframe0
	.4byte	.LFB138
	.4byte	.LFE138-.LFB138
	.align	2
.LEFDE28:
.LSFDE30:
	.4byte	.LEFDE30-.LASFDE30
.LASFDE30:
	.4byte	.Lframe0
	.4byte	.LFB139
	.4byte	.LFE139-.LFB139
	.align	2
.LEFDE30:
.LSFDE32:
	.4byte	.LEFDE32-.LASFDE32
.LASFDE32:
	.4byte	.Lframe0
	.4byte	.LFB140
	.4byte	.LFE140-.LFB140
	.align	2
.LEFDE32:
.LSFDE34:
	.4byte	.LEFDE34-.LASFDE34
.LASFDE34:
	.4byte	.Lframe0
	.4byte	.LFB141
	.4byte	.LFE141-.LFB141
	.align	2
.LEFDE34:
.LSFDE36:
	.4byte	.LEFDE36-.LASFDE36
.LASFDE36:
	.4byte	.Lframe0
	.4byte	.LFB142
	.4byte	.LFE142-.LFB142
	.align	2
.LEFDE36:
.LSFDE38:
	.4byte	.LEFDE38-.LASFDE38
.LASFDE38:
	.4byte	.Lframe0
	.4byte	.LFB143
	.4byte	.LFE143-.LFB143
	.align	2
.LEFDE38:
.LSFDE40:
	.4byte	.LEFDE40-.LASFDE40
.LASFDE40:
	.4byte	.Lframe0
	.4byte	.LFB144
	.4byte	.LFE144-.LFB144
	.align	2
.LEFDE40:
.LSFDE42:
	.4byte	.LEFDE42-.LASFDE42
.LASFDE42:
	.4byte	.Lframe0
	.4byte	.LFB145
	.4byte	.LFE145-.LFB145
	.align	2
.LEFDE42:
.LSFDE44:
	.4byte	.LEFDE44-.LASFDE44
.LASFDE44:
	.4byte	.Lframe0
	.4byte	.LFB146
	.4byte	.LFE146-.LFB146
	.align	2
.LEFDE44:
.LSFDE46:
	.4byte	.LEFDE46-.LASFDE46
.LASFDE46:
	.4byte	.Lframe0
	.4byte	.LFB147
	.4byte	.LFE147-.LFB147
	.align	2
.LEFDE46:
.LSFDE48:
	.4byte	.LEFDE48-.LASFDE48
.LASFDE48:
	.4byte	.Lframe0
	.4byte	.LFB148
	.4byte	.LFE148-.LFB148
	.align	2
.LEFDE48:
.LSFDE50:
	.4byte	.LEFDE50-.LASFDE50
.LASFDE50:
	.4byte	.Lframe0
	.4byte	.LFB149
	.4byte	.LFE149-.LFB149
	.align	2
.LEFDE50:
.LSFDE52:
	.4byte	.LEFDE52-.LASFDE52
.LASFDE52:
	.4byte	.Lframe0
	.4byte	.LFB150
	.4byte	.LFE150-.LFB150
	.align	2
.LEFDE52:
.LSFDE54:
	.4byte	.LEFDE54-.LASFDE54
.LASFDE54:
	.4byte	.Lframe0
	.4byte	.LFB151
	.4byte	.LFE151-.LFB151
	.align	2
.LEFDE54:
.LSFDE56:
	.4byte	.LEFDE56-.LASFDE56
.LASFDE56:
	.4byte	.Lframe0
	.4byte	.LFB152
	.4byte	.LFE152-.LFB152
	.align	2
.LEFDE56:
.LSFDE58:
	.4byte	.LEFDE58-.LASFDE58
.LASFDE58:
	.4byte	.Lframe0
	.4byte	.LFB153
	.4byte	.LFE153-.LFB153
	.align	2
.LEFDE58:
.LSFDE60:
	.4byte	.LEFDE60-.LASFDE60
.LASFDE60:
	.4byte	.Lframe0
	.4byte	.LFB154
	.4byte	.LFE154-.LFB154
	.align	2
.LEFDE60:
.LSFDE62:
	.4byte	.LEFDE62-.LASFDE62
.LASFDE62:
	.4byte	.Lframe0
	.4byte	.LFB155
	.4byte	.LFE155-.LFB155
	.align	2
.LEFDE62:
.LSFDE64:
	.4byte	.LEFDE64-.LASFDE64
.LASFDE64:
	.4byte	.Lframe0
	.4byte	.LFB156
	.4byte	.LFE156-.LFB156
	.align	2
.LEFDE64:
.LSFDE66:
	.4byte	.LEFDE66-.LASFDE66
.LASFDE66:
	.4byte	.Lframe0
	.4byte	.LFB157
	.4byte	.LFE157-.LFB157
	.align	2
.LEFDE66:
.LSFDE68:
	.4byte	.LEFDE68-.LASFDE68
.LASFDE68:
	.4byte	.Lframe0
	.4byte	.LFB158
	.4byte	.LFE158-.LFB158
	.align	2
.LEFDE68:
.LSFDE70:
	.4byte	.LEFDE70-.LASFDE70
.LASFDE70:
	.4byte	.Lframe0
	.4byte	.LFB159
	.4byte	.LFE159-.LFB159
	.align	2
.LEFDE70:
.LSFDE72:
	.4byte	.LEFDE72-.LASFDE72
.LASFDE72:
	.4byte	.Lframe0
	.4byte	.LFB160
	.4byte	.LFE160-.LFB160
	.align	2
.LEFDE72:
.LSFDE74:
	.4byte	.LEFDE74-.LASFDE74
.LASFDE74:
	.4byte	.Lframe0
	.4byte	.LFB161
	.4byte	.LFE161-.LFB161
	.align	2
.LEFDE74:
.LSFDE76:
	.4byte	.LEFDE76-.LASFDE76
.LASFDE76:
	.4byte	.Lframe0
	.4byte	.LFB162
	.4byte	.LFE162-.LFB162
	.align	2
.LEFDE76:
.LSFDE78:
	.4byte	.LEFDE78-.LASFDE78
.LASFDE78:
	.4byte	.Lframe0
	.4byte	.LFB163
	.4byte	.LFE163-.LFB163
	.align	2
.LEFDE78:
.LSFDE80:
	.4byte	.LEFDE80-.LASFDE80
.LASFDE80:
	.4byte	.Lframe0
	.4byte	.LFB164
	.4byte	.LFE164-.LFB164
	.align	2
.LEFDE80:
.LSFDE82:
	.4byte	.LEFDE82-.LASFDE82
.LASFDE82:
	.4byte	.Lframe0
	.4byte	.LFB165
	.4byte	.LFE165-.LFB165
	.align	2
.LEFDE82:
.LSFDE84:
	.4byte	.LEFDE84-.LASFDE84
.LASFDE84:
	.4byte	.Lframe0
	.4byte	.LFB166
	.4byte	.LFE166-.LFB166
	.align	2
.LEFDE84:
.LSFDE86:
	.4byte	.LEFDE86-.LASFDE86
.LASFDE86:
	.4byte	.Lframe0
	.4byte	.LFB167
	.4byte	.LFE167-.LFB167
	.align	2
.LEFDE86:
.LSFDE88:
	.4byte	.LEFDE88-.LASFDE88
.LASFDE88:
	.4byte	.Lframe0
	.4byte	.LFB232
	.4byte	.LFE232-.LFB232
	.byte	0x4
	.4byte	.LCFI5-.LFB232
	.byte	0xe
	.uleb128 0x4
	.byte	0x8e
	.uleb128 0x1
	.byte	0x4
	.4byte	.LCFI6-.LCFI5
	.byte	0xe
	.uleb128 0x18
	.byte	0x4
	.4byte	.LCFI7-.LCFI6
	.byte	0xe
	.uleb128 0x4
	.align	2
.LEFDE88:
.LSFDE90:
	.4byte	.LEFDE90-.LASFDE90
.LASFDE90:
	.4byte	.Lframe0
	.4byte	.LFB233
	.4byte	.LFE233-.LFB233
	.byte	0x4
	.4byte	.LCFI8-.LFB233
	.byte	0xe
	.uleb128 0x4
	.byte	0x8e
	.uleb128 0x1
	.byte	0x4
	.4byte	.LCFI9-.LCFI8
	.byte	0xe
	.uleb128 0x18
	.byte	0x4
	.4byte	.LCFI10-.LCFI9
	.byte	0xe
	.uleb128 0x4
	.align	2
.LEFDE90:
.LSFDE92:
	.4byte	.LEFDE92-.LASFDE92
.LASFDE92:
	.4byte	.Lframe0
	.4byte	.LFB234
	.4byte	.LFE234-.LFB234
	.byte	0x4
	.4byte	.LCFI11-.LFB234
	.byte	0xe
	.uleb128 0x4
	.byte	0x8e
	.uleb128 0x1
	.byte	0x4
	.4byte	.LCFI12-.LCFI11
	.byte	0xe
	.uleb128 0x20
	.byte	0x4
	.4byte	.LCFI13-.LCFI12
	.byte	0xe
	.uleb128 0x4
	.align	2
.LEFDE92:
.LSFDE94:
	.4byte	.LEFDE94-.LASFDE94
.LASFDE94:
	.4byte	.Lframe0
	.4byte	.LFB235
	.4byte	.LFE235-.LFB235
	.byte	0x4
	.4byte	.LCFI14-.LFB235
	.byte	0xe
	.uleb128 0x4
	.byte	0x8e
	.uleb128 0x1
	.byte	0x4
	.4byte	.LCFI15-.LCFI14
	.byte	0xe
	.uleb128 0x20
	.byte	0x4
	.4byte	.LCFI16-.LCFI15
	.byte	0xe
	.uleb128 0x4
	.align	2
.LEFDE94:
.LSFDE96:
	.4byte	.LEFDE96-.LASFDE96
.LASFDE96:
	.4byte	.Lframe0
	.4byte	.LFB236
	.4byte	.LFE236-.LFB236
	.byte	0x4
	.4byte	.LCFI17-.LFB236
	.byte	0xe
	.uleb128 0x4
	.byte	0x8e
	.uleb128 0x1
	.byte	0x4
	.4byte	.LCFI18-.LCFI17
	.byte	0xe
	.uleb128 0x18
	.byte	0x4
	.4byte	.LCFI19-.LCFI18
	.byte	0xe
	.uleb128 0x4
	.align	2
.LEFDE96:
.LSFDE98:
	.4byte	.LEFDE98-.LASFDE98
.LASFDE98:
	.4byte	.Lframe0
	.4byte	.LFB237
	.4byte	.LFE237-.LFB237
	.byte	0x4
	.4byte	.LCFI20-.LFB237
	.byte	0xe
	.uleb128 0x4
	.byte	0x8e
	.uleb128 0x1
	.byte	0x4
	.4byte	.LCFI21-.LCFI20
	.byte	0xe
	.uleb128 0x10
	.byte	0x4
	.4byte	.LCFI22-.LCFI21
	.byte	0xe
	.uleb128 0x4
	.align	2
.LEFDE98:
.LSFDE100:
	.4byte	.LEFDE100-.LASFDE100
.LASFDE100:
	.4byte	.Lframe0
	.4byte	.LFB238
	.4byte	.LFE238-.LFB238
	.byte	0x4
	.4byte	.LCFI23-.LFB238
	.byte	0xe
	.uleb128 0x4
	.byte	0x8e
	.uleb128 0x1
	.byte	0x4
	.4byte	.LCFI24-.LCFI23
	.byte	0xe
	.uleb128 0x20
	.byte	0x4
	.4byte	.LCFI25-.LCFI24
	.byte	0xe
	.uleb128 0x4
	.align	2
.LEFDE100:
.LSFDE102:
	.4byte	.LEFDE102-.LASFDE102
.LASFDE102:
	.4byte	.Lframe0
	.4byte	.LFB239
	.4byte	.LFE239-.LFB239
	.byte	0x4
	.4byte	.LCFI26-.LFB239
	.byte	0xe
	.uleb128 0x4
	.byte	0x8e
	.uleb128 0x1
	.byte	0x4
	.4byte	.LCFI27-.LCFI26
	.byte	0xe
	.uleb128 0x18
	.byte	0x4
	.4byte	.LCFI28-.LCFI27
	.byte	0xe
	.uleb128 0x4
	.align	2
.LEFDE102:
.LSFDE104:
	.4byte	.LEFDE104-.LASFDE104
.LASFDE104:
	.4byte	.Lframe0
	.4byte	.LFB240
	.4byte	.LFE240-.LFB240
	.byte	0x4
	.4byte	.LCFI29-.LFB240
	.byte	0xe
	.uleb128 0x4
	.byte	0x8e
	.uleb128 0x1
	.byte	0x4
	.4byte	.LCFI30-.LCFI29
	.byte	0xe
	.uleb128 0x20
	.byte	0x4
	.4byte	.LCFI31-.LCFI30
	.byte	0xe
	.uleb128 0x4
	.align	2
.LEFDE104:
.LSFDE106:
	.4byte	.LEFDE106-.LASFDE106
.LASFDE106:
	.4byte	.Lframe0
	.4byte	.LFB241
	.4byte	.LFE241-.LFB241
	.byte	0x4
	.4byte	.LCFI32-.LFB241
	.byte	0xe
	.uleb128 0x4
	.byte	0x8e
	.uleb128 0x1
	.byte	0x4
	.4byte	.LCFI33-.LCFI32
	.byte	0xe
	.uleb128 0x18
	.byte	0x4
	.4byte	.LCFI34-.LCFI33
	.byte	0xe
	.uleb128 0x4
	.align	2
.LEFDE106:
.LSFDE108:
	.4byte	.LEFDE108-.LASFDE108
.LASFDE108:
	.4byte	.Lframe0
	.4byte	.LFB242
	.4byte	.LFE242-.LFB242
	.byte	0x4
	.4byte	.LCFI35-.LFB242
	.byte	0xe
	.uleb128 0x4
	.byte	0x8e
	.uleb128 0x1
	.byte	0x4
	.4byte	.LCFI36-.LCFI35
	.byte	0xe
	.uleb128 0x18
	.byte	0x4
	.4byte	.LCFI37-.LCFI36
	.byte	0xe
	.uleb128 0x4
	.align	2
.LEFDE108:
.LSFDE110:
	.4byte	.LEFDE110-.LASFDE110
.LASFDE110:
	.4byte	.Lframe0
	.4byte	.LFB243
	.4byte	.LFE243-.LFB243
	.byte	0x4
	.4byte	.LCFI38-.LFB243
	.byte	0xe
	.uleb128 0x4
	.byte	0x8e
	.uleb128 0x1
	.byte	0x4
	.4byte	.LCFI39-.LCFI38
	.byte	0xe
	.uleb128 0x18
	.byte	0x4
	.4byte	.LCFI40-.LCFI39
	.byte	0xe
	.uleb128 0x4
	.align	2
.LEFDE110:
.LSFDE112:
	.4byte	.LEFDE112-.LASFDE112
.LASFDE112:
	.4byte	.Lframe0
	.4byte	.LFB244
	.4byte	.LFE244-.LFB244
	.byte	0x4
	.4byte	.LCFI41-.LFB244
	.byte	0xe
	.uleb128 0x4
	.byte	0x8e
	.uleb128 0x1
	.byte	0x4
	.4byte	.LCFI42-.LCFI41
	.byte	0xe
	.uleb128 0x18
	.byte	0x4
	.4byte	.LCFI43-.LCFI42
	.byte	0xe
	.uleb128 0x4
	.align	2
.LEFDE112:
.LSFDE114:
	.4byte	.LEFDE114-.LASFDE114
.LASFDE114:
	.4byte	.Lframe0
	.4byte	.LFB245
	.4byte	.LFE245-.LFB245
	.byte	0x4
	.4byte	.LCFI44-.LFB245
	.byte	0xe
	.uleb128 0x4
	.byte	0x8e
	.uleb128 0x1
	.byte	0x4
	.4byte	.LCFI45-.LCFI44
	.byte	0xe
	.uleb128 0x18
	.byte	0x4
	.4byte	.LCFI46-.LCFI45
	.byte	0xe
	.uleb128 0x4
	.align	2
.LEFDE114:
.LSFDE116:
	.4byte	.LEFDE116-.LASFDE116
.LASFDE116:
	.4byte	.Lframe0
	.4byte	.LFB246
	.4byte	.LFE246-.LFB246
	.byte	0x4
	.4byte	.LCFI47-.LFB246
	.byte	0xe
	.uleb128 0x4
	.byte	0x8e
	.uleb128 0x1
	.byte	0x4
	.4byte	.LCFI48-.LCFI47
	.byte	0xe
	.uleb128 0x18
	.byte	0x4
	.4byte	.LCFI49-.LCFI48
	.byte	0xe
	.uleb128 0x4
	.align	2
.LEFDE116:
	.text
.Letext0:
	.file 4 "E:/Program Files/SEGGER/SEGGER Embedded Studio for ARM 5.70a/include/stdint.h"
	.file 5 "../../../deca_driver/deca_device_api.h"
	.file 6 "E:\\matte\\Documents\\uni\\master EIT\\1st year\\2nd semester\\UV\\UWBdrone_estimation\\UWBmodule\\segger projects\\rtdoa_acc_mag\\project\\tag\\SES\\PY_COM\\communication_python.h"
	.file 7 "../../common/config.h"
	.file 8 "../../../nRF5_SDK_14.2.0/components/toolchain/system_nrf52.h"